ARM GAS  C:\Users\fatim\AppData\Local\Temp\ccJComZj.s 			page 1


   1              		.syntax unified
   2              		.cpu cortex-m4
   3              		.eabi_attribute 27, 1
   4              		.fpu fpv4-sp-d16
   5              		.eabi_attribute 20, 1
   6              		.eabi_attribute 21, 1
   7              		.eabi_attribute 23, 3
   8              		.eabi_attribute 24, 1
   9              		.eabi_attribute 25, 1
  10              		.eabi_attribute 26, 1
  11              		.eabi_attribute 30, 1
  12              		.eabi_attribute 34, 1
  13              		.eabi_attribute 18, 4
  14              		.thumb
  15              		.syntax unified
  16              		.file	"algorithme.c"
  17              		.text
  18              	.Ltext0:
  19              		.cfi_sections	.debug_frame
  20              		.section	.text.filtre,"ax",%progbits
  21              		.align	2
  22              		.global	filtre
  23              		.thumb
  24              		.thumb_func
  25              		.type	filtre, %function
  26              	filtre:
  27              	.LFB692:
  28              		.file 1 "algorithme.c"
   1:algorithme.c  **** /* ========================================
   2:algorithme.c  ****  *
   3:algorithme.c  ****  * Copyright YOUR COMPANY, THE YEAR
   4:algorithme.c  ****  * All Rights Reserved
   5:algorithme.c  ****  * UNPUBLISHED, LICENSED SOFTWARE.
   6:algorithme.c  ****  *
   7:algorithme.c  ****  * CONFIDENTIAL AND PROPRIETARY INFORMATION
   8:algorithme.c  ****  * WHICH IS THE PROPERTY OF your company.
   9:algorithme.c  ****  *
  10:algorithme.c  ****  * ========================================
  11:algorithme.c  **** */
  12:algorithme.c  **** #include "algorithme.h"
  13:algorithme.c  **** #include "variables.h"
  14:algorithme.c  **** 
  15:algorithme.c  **** #define BLOCK_SIZE 200 // nombre de donnees par seconde
  16:algorithme.c  **** #define SECONDES 5 // nombre de secondes sur lesquelles on fait le traitement
  17:algorithme.c  **** 
  18:algorithme.c  **** #define FILTER_TAP_NUM 50
  19:algorithme.c  **** 
  20:algorithme.c  **** // Coefficients de calibration d'un filtre passe-bas 2 Hz avec matlab
  21:algorithme.c  **** float32_t filter_taps[FILTER_TAP_NUM] = {
  22:algorithme.c  **** 0.002009,0.002183,0.002558,0.003148,0.003964,0.005011,0.006288,0.007788,0.009499,0.011401,0.013471,
  23:algorithme.c  **** 
  24:algorithme.c  **** };
  25:algorithme.c  **** 
  26:algorithme.c  **** float32_t firStateF32[BUFFER_LENGTH+FILTER_TAP_NUM-1];
  27:algorithme.c  **** 
  28:algorithme.c  **** /*************************************************************************/
  29:algorithme.c  **** 
ARM GAS  C:\Users\fatim\AppData\Local\Temp\ccJComZj.s 			page 2


  30:algorithme.c  **** /* Cette fonction prend en parametres le signal non-filtré et le signal filtré. Elle filtre le si
  31:algorithme.c  ****  et place le signal filtré de le buffer Output.
  32:algorithme.c  **** */
  33:algorithme.c  **** void filtre(uint32_t *Signal, uint32_t *Output){
  29              		.loc 1 33 0
  30              		.cfi_startproc
  31              		@ args = 0, pretend = 0, frame = 24
  32              		@ frame_needed = 0, uses_anonymous_args = 0
  33              	.LVL0:
  34 0000 70B5     		push	{r4, r5, r6, lr}
  35              		.cfi_def_cfa_offset 16
  36              		.cfi_offset 4, -16
  37              		.cfi_offset 5, -12
  38              		.cfi_offset 6, -8
  39              		.cfi_offset 14, -4
  40 0002 88B0     		sub	sp, sp, #32
  41              		.cfi_def_cfa_offset 48
  42 0004 0546     		mov	r5, r0
  43 0006 0E46     		mov	r6, r1
  44              	.LVL1:
  34:algorithme.c  ****     
  35:algorithme.c  ****        
  36:algorithme.c  ****     arm_fir_instance_f32 S;
  37:algorithme.c  ****     
  38:algorithme.c  ****     uint32_t *inputF32;
  39:algorithme.c  ****     uint32_t *outputF32;
  40:algorithme.c  ****     
  41:algorithme.c  ****     inputF32 = Signal;
  42:algorithme.c  ****     outputF32 = Output;
  43:algorithme.c  ****     
  44:algorithme.c  ****     uint32_t longueur = BUFFER_LENGTH;
  45:algorithme.c  ****     
  46:algorithme.c  ****     arm_fir_init_f32(&S, FILTER_TAP_NUM, (float32_t*)&filter_taps[0],&firStateF32[0],longueur);
  45              		.loc 1 46 0
  46 0008 4FF47A74 		mov	r4, #1000
  47 000c 0094     		str	r4, [sp]
  48 000e 144B     		ldr	r3, .L5
  49 0010 144A     		ldr	r2, .L5+4
  50 0012 3221     		movs	r1, #50
  51              	.LVL2:
  52 0014 05A8     		add	r0, sp, #20
  53              	.LVL3:
  54 0016 FFF7FEFF 		bl	arm_fir_init_f32
  55              	.LVL4:
  47:algorithme.c  ****     arm_fir_f32(&S,(float32_t*)inputF32,(float32_t*)outputF32,longueur);
  56              		.loc 1 47 0
  57 001a 2346     		mov	r3, r4
  58 001c 3246     		mov	r2, r6
  59 001e 2946     		mov	r1, r5
  60 0020 05A8     		add	r0, sp, #20
  61 0022 FFF7FEFF 		bl	arm_fir_f32
  62              	.LVL5:
  63              	.LBB22:
  64              	.LBB23:
  65              	.LBB24:
  66              		.file 2 "Generated_Source\\PSoC6\\pdl\\drivers/peripheral/scb/cy_scb_uart.h"
   1:Generated_Source\PSoC6\pdl\drivers/peripheral/scb/cy_scb_uart.h **** /***************************************************************************//**
ARM GAS  C:\Users\fatim\AppData\Local\Temp\ccJComZj.s 			page 3


   2:Generated_Source\PSoC6\pdl\drivers/peripheral/scb/cy_scb_uart.h **** * \file cy_scb_uart.h
   3:Generated_Source\PSoC6\pdl\drivers/peripheral/scb/cy_scb_uart.h **** * \version 2.20
   4:Generated_Source\PSoC6\pdl\drivers/peripheral/scb/cy_scb_uart.h **** *
   5:Generated_Source\PSoC6\pdl\drivers/peripheral/scb/cy_scb_uart.h **** * Provides UART API declarations of the SCB driver.
   6:Generated_Source\PSoC6\pdl\drivers/peripheral/scb/cy_scb_uart.h **** *
   7:Generated_Source\PSoC6\pdl\drivers/peripheral/scb/cy_scb_uart.h **** ********************************************************************************
   8:Generated_Source\PSoC6\pdl\drivers/peripheral/scb/cy_scb_uart.h **** * \copyright
   9:Generated_Source\PSoC6\pdl\drivers/peripheral/scb/cy_scb_uart.h **** * Copyright 2016-2018, Cypress Semiconductor Corporation.  All rights reserved.
  10:Generated_Source\PSoC6\pdl\drivers/peripheral/scb/cy_scb_uart.h **** * You may use this file only in accordance with the license, terms, conditions,
  11:Generated_Source\PSoC6\pdl\drivers/peripheral/scb/cy_scb_uart.h **** * disclaimers, and limitations in the end user license agreement accompanying
  12:Generated_Source\PSoC6\pdl\drivers/peripheral/scb/cy_scb_uart.h **** * the software package with which this file was provided.
  13:Generated_Source\PSoC6\pdl\drivers/peripheral/scb/cy_scb_uart.h **** *******************************************************************************/
  14:Generated_Source\PSoC6\pdl\drivers/peripheral/scb/cy_scb_uart.h **** 
  15:Generated_Source\PSoC6\pdl\drivers/peripheral/scb/cy_scb_uart.h **** /**
  16:Generated_Source\PSoC6\pdl\drivers/peripheral/scb/cy_scb_uart.h **** * \addtogroup group_scb_uart
  17:Generated_Source\PSoC6\pdl\drivers/peripheral/scb/cy_scb_uart.h **** * \{
  18:Generated_Source\PSoC6\pdl\drivers/peripheral/scb/cy_scb_uart.h **** * Driver API for UART
  19:Generated_Source\PSoC6\pdl\drivers/peripheral/scb/cy_scb_uart.h **** *
  20:Generated_Source\PSoC6\pdl\drivers/peripheral/scb/cy_scb_uart.h **** * The functions and other declarations used in this part of the driver are in 
  21:Generated_Source\PSoC6\pdl\drivers/peripheral/scb/cy_scb_uart.h **** * cy_scb_uart.h. You can also include cy_pdl.h (ModusToolbox only) to get access 
  22:Generated_Source\PSoC6\pdl\drivers/peripheral/scb/cy_scb_uart.h **** * to all functions and declarations in the PDL.
  23:Generated_Source\PSoC6\pdl\drivers/peripheral/scb/cy_scb_uart.h **** *
  24:Generated_Source\PSoC6\pdl\drivers/peripheral/scb/cy_scb_uart.h **** * The Universal Asynchronous Receiver/Transmitter (UART) protocol is an 
  25:Generated_Source\PSoC6\pdl\drivers/peripheral/scb/cy_scb_uart.h **** * asynchronous serial interface protocol. UART communication is typically 
  26:Generated_Source\PSoC6\pdl\drivers/peripheral/scb/cy_scb_uart.h **** * point-to-point. The UART interface consists of two signals:
  27:Generated_Source\PSoC6\pdl\drivers/peripheral/scb/cy_scb_uart.h **** * * TX: Transmitter output
  28:Generated_Source\PSoC6\pdl\drivers/peripheral/scb/cy_scb_uart.h **** * * RX: Receiver input
  29:Generated_Source\PSoC6\pdl\drivers/peripheral/scb/cy_scb_uart.h **** *
  30:Generated_Source\PSoC6\pdl\drivers/peripheral/scb/cy_scb_uart.h **** * Additionally, two side-band signals are used to implement flow control in 
  31:Generated_Source\PSoC6\pdl\drivers/peripheral/scb/cy_scb_uart.h **** * UART. Note that the flow control applies only to TX functionality.
  32:Generated_Source\PSoC6\pdl\drivers/peripheral/scb/cy_scb_uart.h **** * * Clear to Send (CTS): This is an input signal to the transmitter. 
  33:Generated_Source\PSoC6\pdl\drivers/peripheral/scb/cy_scb_uart.h **** *   When active, it indicates that the slave is ready for the master to 
  34:Generated_Source\PSoC6\pdl\drivers/peripheral/scb/cy_scb_uart.h **** *   transmit data.
  35:Generated_Source\PSoC6\pdl\drivers/peripheral/scb/cy_scb_uart.h **** * * Ready to Send (RTS): This is an output signal from the receiver. When 
  36:Generated_Source\PSoC6\pdl\drivers/peripheral/scb/cy_scb_uart.h **** *   active, it indicates that the receiver is ready to receive data
  37:Generated_Source\PSoC6\pdl\drivers/peripheral/scb/cy_scb_uart.h **** *
  38:Generated_Source\PSoC6\pdl\drivers/peripheral/scb/cy_scb_uart.h **** * Features:
  39:Generated_Source\PSoC6\pdl\drivers/peripheral/scb/cy_scb_uart.h **** * * Supports UART protocol
  40:Generated_Source\PSoC6\pdl\drivers/peripheral/scb/cy_scb_uart.h **** *   * Standard UART
  41:Generated_Source\PSoC6\pdl\drivers/peripheral/scb/cy_scb_uart.h **** *   * Multi-processor mode
  42:Generated_Source\PSoC6\pdl\drivers/peripheral/scb/cy_scb_uart.h **** * * SmartCard (ISO7816) reader
  43:Generated_Source\PSoC6\pdl\drivers/peripheral/scb/cy_scb_uart.h **** * * IrDA
  44:Generated_Source\PSoC6\pdl\drivers/peripheral/scb/cy_scb_uart.h **** * * Data frame size programmable from 4 to 16 bits
  45:Generated_Source\PSoC6\pdl\drivers/peripheral/scb/cy_scb_uart.h **** * * Programmable number of STOP bits, which can be set in terms of half bit 
  46:Generated_Source\PSoC6\pdl\drivers/peripheral/scb/cy_scb_uart.h **** *   periods between 1 and 4
  47:Generated_Source\PSoC6\pdl\drivers/peripheral/scb/cy_scb_uart.h **** * * Parity support (odd and even parity)
  48:Generated_Source\PSoC6\pdl\drivers/peripheral/scb/cy_scb_uart.h **** * * Median filter on Rx input
  49:Generated_Source\PSoC6\pdl\drivers/peripheral/scb/cy_scb_uart.h **** * * Programmable oversampling
  50:Generated_Source\PSoC6\pdl\drivers/peripheral/scb/cy_scb_uart.h **** * * Start skipping
  51:Generated_Source\PSoC6\pdl\drivers/peripheral/scb/cy_scb_uart.h **** *
  52:Generated_Source\PSoC6\pdl\drivers/peripheral/scb/cy_scb_uart.h **** ********************************************************************************
  53:Generated_Source\PSoC6\pdl\drivers/peripheral/scb/cy_scb_uart.h **** * \section group_scb_uart_configuration Configuration Considerations
  54:Generated_Source\PSoC6\pdl\drivers/peripheral/scb/cy_scb_uart.h **** ********************************************************************************
  55:Generated_Source\PSoC6\pdl\drivers/peripheral/scb/cy_scb_uart.h **** * The UART driver configuration can be divided to number of sequential
  56:Generated_Source\PSoC6\pdl\drivers/peripheral/scb/cy_scb_uart.h **** * steps listed below:
  57:Generated_Source\PSoC6\pdl\drivers/peripheral/scb/cy_scb_uart.h **** * * \ref group_scb_uart_config
  58:Generated_Source\PSoC6\pdl\drivers/peripheral/scb/cy_scb_uart.h **** * * \ref group_scb_uart_pins
ARM GAS  C:\Users\fatim\AppData\Local\Temp\ccJComZj.s 			page 4


  59:Generated_Source\PSoC6\pdl\drivers/peripheral/scb/cy_scb_uart.h **** * * \ref group_scb_uart_clock
  60:Generated_Source\PSoC6\pdl\drivers/peripheral/scb/cy_scb_uart.h **** * * \ref group_scb_uart_data_rate
  61:Generated_Source\PSoC6\pdl\drivers/peripheral/scb/cy_scb_uart.h **** * * \ref group_scb_uart_intr
  62:Generated_Source\PSoC6\pdl\drivers/peripheral/scb/cy_scb_uart.h **** * * \ref group_scb_uart_enable
  63:Generated_Source\PSoC6\pdl\drivers/peripheral/scb/cy_scb_uart.h **** *
  64:Generated_Source\PSoC6\pdl\drivers/peripheral/scb/cy_scb_uart.h **** * \note
  65:Generated_Source\PSoC6\pdl\drivers/peripheral/scb/cy_scb_uart.h **** * UART driver is built on top of the SCB hardware block. The SCB5 instance is
  66:Generated_Source\PSoC6\pdl\drivers/peripheral/scb/cy_scb_uart.h **** * used as an example for all code snippets. Modify the code to match your
  67:Generated_Source\PSoC6\pdl\drivers/peripheral/scb/cy_scb_uart.h **** * design.
  68:Generated_Source\PSoC6\pdl\drivers/peripheral/scb/cy_scb_uart.h **** *
  69:Generated_Source\PSoC6\pdl\drivers/peripheral/scb/cy_scb_uart.h **** ********************************************************************************
  70:Generated_Source\PSoC6\pdl\drivers/peripheral/scb/cy_scb_uart.h **** * \subsection group_scb_uart_config Configure UART
  71:Generated_Source\PSoC6\pdl\drivers/peripheral/scb/cy_scb_uart.h **** ********************************************************************************
  72:Generated_Source\PSoC6\pdl\drivers/peripheral/scb/cy_scb_uart.h **** * To set up the UART driver, provide the configuration parameters in the
  73:Generated_Source\PSoC6\pdl\drivers/peripheral/scb/cy_scb_uart.h **** * \ref cy_stc_scb_uart_config_t structure. For example: provide uartMode,
  74:Generated_Source\PSoC6\pdl\drivers/peripheral/scb/cy_scb_uart.h **** * oversample, dataWidth, enableMsbFirst, parity, and stopBits. The other
  75:Generated_Source\PSoC6\pdl\drivers/peripheral/scb/cy_scb_uart.h **** * parameters are optional. To initialize the driver, call \ref Cy_SCB_UART_Init 
  76:Generated_Source\PSoC6\pdl\drivers/peripheral/scb/cy_scb_uart.h **** * function providing a pointer to the populated \ref cy_stc_scb_uart_config_t 
  77:Generated_Source\PSoC6\pdl\drivers/peripheral/scb/cy_scb_uart.h **** * structure and the allocated \ref cy_stc_scb_uart_context_t structure.
  78:Generated_Source\PSoC6\pdl\drivers/peripheral/scb/cy_scb_uart.h **** *
  79:Generated_Source\PSoC6\pdl\drivers/peripheral/scb/cy_scb_uart.h **** * \snippet SCB_CompDatasheet_sut_01_revA.cydsn\uart_snippets.c UART_CFG
  80:Generated_Source\PSoC6\pdl\drivers/peripheral/scb/cy_scb_uart.h **** *
  81:Generated_Source\PSoC6\pdl\drivers/peripheral/scb/cy_scb_uart.h **** ********************************************************************************
  82:Generated_Source\PSoC6\pdl\drivers/peripheral/scb/cy_scb_uart.h **** * \subsection group_scb_uart_pins Assign and Configure Pins
  83:Generated_Source\PSoC6\pdl\drivers/peripheral/scb/cy_scb_uart.h **** ********************************************************************************
  84:Generated_Source\PSoC6\pdl\drivers/peripheral/scb/cy_scb_uart.h **** * Only dedicated SCB pins can be used for UART operation. The HSIOM
  85:Generated_Source\PSoC6\pdl\drivers/peripheral/scb/cy_scb_uart.h **** * register must be configured to connect dedicated SCB UART pins to the 
  86:Generated_Source\PSoC6\pdl\drivers/peripheral/scb/cy_scb_uart.h **** * SCB block. Also, the UART output pins must be configured in Strong Drive 
  87:Generated_Source\PSoC6\pdl\drivers/peripheral/scb/cy_scb_uart.h **** * Input Off mode and UART input pins in Digital High-Z:
  88:Generated_Source\PSoC6\pdl\drivers/peripheral/scb/cy_scb_uart.h **** *
  89:Generated_Source\PSoC6\pdl\drivers/peripheral/scb/cy_scb_uart.h **** * \snippet SCB_CompDatasheet_sut_01_revA.cydsn\uart_snippets.c UART_CFG_PINS
  90:Generated_Source\PSoC6\pdl\drivers/peripheral/scb/cy_scb_uart.h **** *
  91:Generated_Source\PSoC6\pdl\drivers/peripheral/scb/cy_scb_uart.h **** ********************************************************************************
  92:Generated_Source\PSoC6\pdl\drivers/peripheral/scb/cy_scb_uart.h **** * \subsection group_scb_uart_clock Assign Clock Divider
  93:Generated_Source\PSoC6\pdl\drivers/peripheral/scb/cy_scb_uart.h **** ********************************************************************************
  94:Generated_Source\PSoC6\pdl\drivers/peripheral/scb/cy_scb_uart.h **** * A clock source must be connected to the SCB block to oversample input and
  95:Generated_Source\PSoC6\pdl\drivers/peripheral/scb/cy_scb_uart.h **** * output signals, in this document this clock will be referred as clk_scb.
  96:Generated_Source\PSoC6\pdl\drivers/peripheral/scb/cy_scb_uart.h **** * You must use one of available integer or fractional dividers. Use the 
  97:Generated_Source\PSoC6\pdl\drivers/peripheral/scb/cy_scb_uart.h **** * \ref group_sysclk driver API to do this.
  98:Generated_Source\PSoC6\pdl\drivers/peripheral/scb/cy_scb_uart.h **** *
  99:Generated_Source\PSoC6\pdl\drivers/peripheral/scb/cy_scb_uart.h **** * \snippet SCB_CompDatasheet_sut_01_revA.cydsn\uart_snippets.c UART_CFG_ASSIGN_CLOCK
 100:Generated_Source\PSoC6\pdl\drivers/peripheral/scb/cy_scb_uart.h **** *
 101:Generated_Source\PSoC6\pdl\drivers/peripheral/scb/cy_scb_uart.h **** ********************************************************************************
 102:Generated_Source\PSoC6\pdl\drivers/peripheral/scb/cy_scb_uart.h **** * \subsection group_scb_uart_data_rate Configure Baud Rate
 103:Generated_Source\PSoC6\pdl\drivers/peripheral/scb/cy_scb_uart.h **** ********************************************************************************
 104:Generated_Source\PSoC6\pdl\drivers/peripheral/scb/cy_scb_uart.h **** * To get the UART to operate with the desired baud rate, the clk_scb frequency
 105:Generated_Source\PSoC6\pdl\drivers/peripheral/scb/cy_scb_uart.h **** * and the oversample must be configured. Use the \ref group_sysclk driver API
 106:Generated_Source\PSoC6\pdl\drivers/peripheral/scb/cy_scb_uart.h **** * to configure clk_scb frequency. Set the <em><b>oversample parameter
 107:Generated_Source\PSoC6\pdl\drivers/peripheral/scb/cy_scb_uart.h **** * in configuration structure</b></em> to define the number of the SCB clocks
 108:Generated_Source\PSoC6\pdl\drivers/peripheral/scb/cy_scb_uart.h **** * within one UART bit-time.
 109:Generated_Source\PSoC6\pdl\drivers/peripheral/scb/cy_scb_uart.h **** *
 110:Generated_Source\PSoC6\pdl\drivers/peripheral/scb/cy_scb_uart.h **** * \snippet SCB_CompDatasheet_sut_01_revA.cydsn\uart_snippets.c UART_CFG_DATA_RATE
 111:Generated_Source\PSoC6\pdl\drivers/peripheral/scb/cy_scb_uart.h **** *
 112:Generated_Source\PSoC6\pdl\drivers/peripheral/scb/cy_scb_uart.h **** * <b>Refer to the technical reference manual (TRM) section UART sub-section
 113:Generated_Source\PSoC6\pdl\drivers/peripheral/scb/cy_scb_uart.h **** * Clocking and Oversampling to get information about how to configure the UART to run with
 114:Generated_Source\PSoC6\pdl\drivers/peripheral/scb/cy_scb_uart.h **** * desired baud rate.</b>
 115:Generated_Source\PSoC6\pdl\drivers/peripheral/scb/cy_scb_uart.h **** *
ARM GAS  C:\Users\fatim\AppData\Local\Temp\ccJComZj.s 			page 5


 116:Generated_Source\PSoC6\pdl\drivers/peripheral/scb/cy_scb_uart.h **** ********************************************************************************
 117:Generated_Source\PSoC6\pdl\drivers/peripheral/scb/cy_scb_uart.h **** * \subsection group_scb_uart_intr Configure Interrupt
 118:Generated_Source\PSoC6\pdl\drivers/peripheral/scb/cy_scb_uart.h **** ********************************************************************************
 119:Generated_Source\PSoC6\pdl\drivers/peripheral/scb/cy_scb_uart.h **** * The interrupt is optional for the UART operation. To configure interrupt
 120:Generated_Source\PSoC6\pdl\drivers/peripheral/scb/cy_scb_uart.h **** * the \ref Cy_SCB_UART_Interrupt function must be called in the interrupt
 121:Generated_Source\PSoC6\pdl\drivers/peripheral/scb/cy_scb_uart.h **** * handler for the selected SCB instance. Also, this interrupt must be enabled
 122:Generated_Source\PSoC6\pdl\drivers/peripheral/scb/cy_scb_uart.h **** * in the NVIC.
 123:Generated_Source\PSoC6\pdl\drivers/peripheral/scb/cy_scb_uart.h **** * The interrupt must be configured when \ref group_scb_uart_hl will be used.
 124:Generated_Source\PSoC6\pdl\drivers/peripheral/scb/cy_scb_uart.h **** *
 125:Generated_Source\PSoC6\pdl\drivers/peripheral/scb/cy_scb_uart.h **** * \snippet SCB_CompDatasheet_sut_01_revA.cydsn\uart_snippets.c UART_INTR_A
 126:Generated_Source\PSoC6\pdl\drivers/peripheral/scb/cy_scb_uart.h **** * \snippet SCB_CompDatasheet_sut_01_revA.cydsn\uart_snippets.c UART_INTR_B
 127:Generated_Source\PSoC6\pdl\drivers/peripheral/scb/cy_scb_uart.h **** *
 128:Generated_Source\PSoC6\pdl\drivers/peripheral/scb/cy_scb_uart.h **** ********************************************************************************
 129:Generated_Source\PSoC6\pdl\drivers/peripheral/scb/cy_scb_uart.h **** * \subsection group_scb_uart_enable Enable UART
 130:Generated_Source\PSoC6\pdl\drivers/peripheral/scb/cy_scb_uart.h **** ********************************************************************************
 131:Generated_Source\PSoC6\pdl\drivers/peripheral/scb/cy_scb_uart.h **** * Finally, enable the UART operation by calling \ref Cy_SCB_UART_Enable.
 132:Generated_Source\PSoC6\pdl\drivers/peripheral/scb/cy_scb_uart.h **** *
 133:Generated_Source\PSoC6\pdl\drivers/peripheral/scb/cy_scb_uart.h **** * \snippet SCB_CompDatasheet_sut_01_revA.cydsn\uart_snippets.c UART_ENABLE
 134:Generated_Source\PSoC6\pdl\drivers/peripheral/scb/cy_scb_uart.h **** *
 135:Generated_Source\PSoC6\pdl\drivers/peripheral/scb/cy_scb_uart.h **** ********************************************************************************
 136:Generated_Source\PSoC6\pdl\drivers/peripheral/scb/cy_scb_uart.h **** * \section group_scb_uart_use_cases Common Use Cases
 137:Generated_Source\PSoC6\pdl\drivers/peripheral/scb/cy_scb_uart.h **** ********************************************************************************
 138:Generated_Source\PSoC6\pdl\drivers/peripheral/scb/cy_scb_uart.h **** * The UART API is divided into two categories: \ref group_scb_uart_low_level_functions
 139:Generated_Source\PSoC6\pdl\drivers/peripheral/scb/cy_scb_uart.h **** * and \ref group_scb_uart_high_level_functions. \n
 140:Generated_Source\PSoC6\pdl\drivers/peripheral/scb/cy_scb_uart.h **** * <em>Do not mix <b>High-Level</b> and <b>Low-Level</b> API because a Low-Level
 141:Generated_Source\PSoC6\pdl\drivers/peripheral/scb/cy_scb_uart.h **** * API can adversely affect the operation of a High-Level API.</em>
 142:Generated_Source\PSoC6\pdl\drivers/peripheral/scb/cy_scb_uart.h **** *
 143:Generated_Source\PSoC6\pdl\drivers/peripheral/scb/cy_scb_uart.h **** ********************************************************************************
 144:Generated_Source\PSoC6\pdl\drivers/peripheral/scb/cy_scb_uart.h **** * \subsection group_scb_uart_ll Low-Level API
 145:Generated_Source\PSoC6\pdl\drivers/peripheral/scb/cy_scb_uart.h **** ********************************************************************************
 146:Generated_Source\PSoC6\pdl\drivers/peripheral/scb/cy_scb_uart.h **** * The \ref group_scb_uart_low_level_functions functions allow
 147:Generated_Source\PSoC6\pdl\drivers/peripheral/scb/cy_scb_uart.h **** * interacting directly with the hardware and do not use \ref Cy_SCB_UART_Interrupt.
 148:Generated_Source\PSoC6\pdl\drivers/peripheral/scb/cy_scb_uart.h **** * These functions do not require context for operation. Thus, NULL can be
 149:Generated_Source\PSoC6\pdl\drivers/peripheral/scb/cy_scb_uart.h **** * passed for context parameter in \ref Cy_SCB_UART_Init and \ref Cy_SCB_UART_Disable 
 150:Generated_Source\PSoC6\pdl\drivers/peripheral/scb/cy_scb_uart.h **** * instead of a pointer to the context structure.
 151:Generated_Source\PSoC6\pdl\drivers/peripheral/scb/cy_scb_uart.h **** *
 152:Generated_Source\PSoC6\pdl\drivers/peripheral/scb/cy_scb_uart.h **** * * To write data into the TX FIFO, use one of the provided functions:
 153:Generated_Source\PSoC6\pdl\drivers/peripheral/scb/cy_scb_uart.h **** *   \ref Cy_SCB_UART_Put, \ref Cy_SCB_UART_PutArray,
 154:Generated_Source\PSoC6\pdl\drivers/peripheral/scb/cy_scb_uart.h **** *   \ref Cy_SCB_UART_PutArrayBlocking or \ref Cy_SCB_UART_PutString.
 155:Generated_Source\PSoC6\pdl\drivers/peripheral/scb/cy_scb_uart.h **** *   Note that putting data into the TX FIFO starts data transfer.
 156:Generated_Source\PSoC6\pdl\drivers/peripheral/scb/cy_scb_uart.h **** *
 157:Generated_Source\PSoC6\pdl\drivers/peripheral/scb/cy_scb_uart.h **** * * To read data from the RX FIFO, use one of the provided functions:
 158:Generated_Source\PSoC6\pdl\drivers/peripheral/scb/cy_scb_uart.h **** *   \ref Cy_SCB_UART_Get, \ref Cy_SCB_UART_GetArray or
 159:Generated_Source\PSoC6\pdl\drivers/peripheral/scb/cy_scb_uart.h **** *   \ref Cy_SCB_UART_GetArrayBlocking.
 160:Generated_Source\PSoC6\pdl\drivers/peripheral/scb/cy_scb_uart.h **** *
 161:Generated_Source\PSoC6\pdl\drivers/peripheral/scb/cy_scb_uart.h **** * * The statuses can be polled using: \ref Cy_SCB_UART_GetRxFifoStatus and
 162:Generated_Source\PSoC6\pdl\drivers/peripheral/scb/cy_scb_uart.h **** *   \ref Cy_SCB_UART_GetTxFifoStatus.
 163:Generated_Source\PSoC6\pdl\drivers/peripheral/scb/cy_scb_uart.h **** *   <em>The statuses are <b>W1C (Write 1 to Clear)</b> and after a status
 164:Generated_Source\PSoC6\pdl\drivers/peripheral/scb/cy_scb_uart.h **** *   is set, it must be cleared.</em> Note that there are statuses evaluated as level.
 165:Generated_Source\PSoC6\pdl\drivers/peripheral/scb/cy_scb_uart.h **** *   These statuses remain set until an event is true. Therefore, after the clear
 166:Generated_Source\PSoC6\pdl\drivers/peripheral/scb/cy_scb_uart.h **** *   operation, the status is cleared but then it is restored (if event is still
 167:Generated_Source\PSoC6\pdl\drivers/peripheral/scb/cy_scb_uart.h **** *   true).
 168:Generated_Source\PSoC6\pdl\drivers/peripheral/scb/cy_scb_uart.h **** *   Also, the following functions can be used for polling as well
 169:Generated_Source\PSoC6\pdl\drivers/peripheral/scb/cy_scb_uart.h **** *   \ref Cy_SCB_UART_IsTxComplete, \ref Cy_SCB_UART_GetNumInRxFifo and
 170:Generated_Source\PSoC6\pdl\drivers/peripheral/scb/cy_scb_uart.h **** *   \ref Cy_SCB_UART_GetNumInTxFifo.
 171:Generated_Source\PSoC6\pdl\drivers/peripheral/scb/cy_scb_uart.h **** *
 172:Generated_Source\PSoC6\pdl\drivers/peripheral/scb/cy_scb_uart.h **** * \snippet SCB_CompDatasheet_sut_01_revA.cydsn\uart_snippets.c UART_TRANSMIT_DATA_LL
ARM GAS  C:\Users\fatim\AppData\Local\Temp\ccJComZj.s 			page 6


 173:Generated_Source\PSoC6\pdl\drivers/peripheral/scb/cy_scb_uart.h **** *
 174:Generated_Source\PSoC6\pdl\drivers/peripheral/scb/cy_scb_uart.h **** ********************************************************************************
 175:Generated_Source\PSoC6\pdl\drivers/peripheral/scb/cy_scb_uart.h **** * \subsection group_scb_uart_hl High-Level API
 176:Generated_Source\PSoC6\pdl\drivers/peripheral/scb/cy_scb_uart.h **** ********************************************************************************
 177:Generated_Source\PSoC6\pdl\drivers/peripheral/scb/cy_scb_uart.h **** * The \ref group_scb_uart_high_level_functions API use \ref Cy_SCB_UART_Interrupt
 178:Generated_Source\PSoC6\pdl\drivers/peripheral/scb/cy_scb_uart.h **** * to execute the transfer. Call \ref Cy_SCB_UART_Transmit to start transmission.
 179:Generated_Source\PSoC6\pdl\drivers/peripheral/scb/cy_scb_uart.h **** * Call \ref Cy_SCB_UART_Receive to start receive operation. After the
 180:Generated_Source\PSoC6\pdl\drivers/peripheral/scb/cy_scb_uart.h **** * operation is started the \ref Cy_SCB_UART_Interrupt handles the data
 181:Generated_Source\PSoC6\pdl\drivers/peripheral/scb/cy_scb_uart.h **** * transfer until its completion.
 182:Generated_Source\PSoC6\pdl\drivers/peripheral/scb/cy_scb_uart.h **** * Therefore \ref Cy_SCB_UART_Interrupt must be called inside the user 
 183:Generated_Source\PSoC6\pdl\drivers/peripheral/scb/cy_scb_uart.h **** * interrupt handler to make the High-Level API work. To monitor status
 184:Generated_Source\PSoC6\pdl\drivers/peripheral/scb/cy_scb_uart.h **** * of transmit operation, use \ref Cy_SCB_UART_GetTransmitStatus and
 185:Generated_Source\PSoC6\pdl\drivers/peripheral/scb/cy_scb_uart.h **** * \ref Cy_SCB_UART_GetReceiveStatus to monitor receive status appropriately.
 186:Generated_Source\PSoC6\pdl\drivers/peripheral/scb/cy_scb_uart.h **** * Alternatively use \ref Cy_SCB_UART_RegisterCallback to register callback
 187:Generated_Source\PSoC6\pdl\drivers/peripheral/scb/cy_scb_uart.h **** * function to be notified about \ref group_scb_uart_macros_callback_events.
 188:Generated_Source\PSoC6\pdl\drivers/peripheral/scb/cy_scb_uart.h **** *
 189:Generated_Source\PSoC6\pdl\drivers/peripheral/scb/cy_scb_uart.h **** * <b>Receive Operation</b>
 190:Generated_Source\PSoC6\pdl\drivers/peripheral/scb/cy_scb_uart.h **** * \snippet SCB_CompDatasheet_sut_01_revA.cydsn\uart_snippets.c UART_RECEIVE_DATA_HL
 191:Generated_Source\PSoC6\pdl\drivers/peripheral/scb/cy_scb_uart.h **** *
 192:Generated_Source\PSoC6\pdl\drivers/peripheral/scb/cy_scb_uart.h **** * <b>Transmit Operation</b>
 193:Generated_Source\PSoC6\pdl\drivers/peripheral/scb/cy_scb_uart.h **** * \snippet SCB_CompDatasheet_sut_01_revA.cydsn\uart_snippets.c UART_TRANSMIT_DATA_HL
 194:Generated_Source\PSoC6\pdl\drivers/peripheral/scb/cy_scb_uart.h **** *
 195:Generated_Source\PSoC6\pdl\drivers/peripheral/scb/cy_scb_uart.h **** * There is also capability to insert a receive ring buffer that operates between
 196:Generated_Source\PSoC6\pdl\drivers/peripheral/scb/cy_scb_uart.h **** * the RX FIFO and the user buffer. The received data is copied into the ring
 197:Generated_Source\PSoC6\pdl\drivers/peripheral/scb/cy_scb_uart.h **** * buffer from the RX FIFO. This process runs in the background after the ring
 198:Generated_Source\PSoC6\pdl\drivers/peripheral/scb/cy_scb_uart.h **** * buffer operation is started by \ref Cy_SCB_UART_StartRingBuffer.
 199:Generated_Source\PSoC6\pdl\drivers/peripheral/scb/cy_scb_uart.h **** * When \ref Cy_SCB_UART_Receive is called, it first reads data from the ring
 200:Generated_Source\PSoC6\pdl\drivers/peripheral/scb/cy_scb_uart.h **** * buffer and then sets up an interrupt to receive more data if the required
 201:Generated_Source\PSoC6\pdl\drivers/peripheral/scb/cy_scb_uart.h **** * amount has not yet been read.
 202:Generated_Source\PSoC6\pdl\drivers/peripheral/scb/cy_scb_uart.h **** *
 203:Generated_Source\PSoC6\pdl\drivers/peripheral/scb/cy_scb_uart.h **** ********************************************************************************
 204:Generated_Source\PSoC6\pdl\drivers/peripheral/scb/cy_scb_uart.h **** * \section group_scb_uart_dma_trig DMA Trigger
 205:Generated_Source\PSoC6\pdl\drivers/peripheral/scb/cy_scb_uart.h **** ********************************************************************************
 206:Generated_Source\PSoC6\pdl\drivers/peripheral/scb/cy_scb_uart.h **** * The SCB provides TX and RX output trigger signals that can be routed to the
 207:Generated_Source\PSoC6\pdl\drivers/peripheral/scb/cy_scb_uart.h **** * DMA controller inputs. These signals are assigned based on the data availability
 208:Generated_Source\PSoC6\pdl\drivers/peripheral/scb/cy_scb_uart.h **** * in the TX and RX FIFOs appropriately.
 209:Generated_Source\PSoC6\pdl\drivers/peripheral/scb/cy_scb_uart.h **** *
 210:Generated_Source\PSoC6\pdl\drivers/peripheral/scb/cy_scb_uart.h **** * * The RX trigger signal is active while the number of data
 211:Generated_Source\PSoC6\pdl\drivers/peripheral/scb/cy_scb_uart.h **** *   elements in the RX FIFO is greater than the value of RX FIFO level. Use
 212:Generated_Source\PSoC6\pdl\drivers/peripheral/scb/cy_scb_uart.h **** *   function \ref Cy_SCB_SetRxFifoLevel or set configuration structure
 213:Generated_Source\PSoC6\pdl\drivers/peripheral/scb/cy_scb_uart.h **** *   rxFifoTriggerLevel parameter to configure RX FIFO level value. \n
 214:Generated_Source\PSoC6\pdl\drivers/peripheral/scb/cy_scb_uart.h **** *   <em>For example, the RX FIFO has 8 data elements and the RX FIFO level is 0.
 215:Generated_Source\PSoC6\pdl\drivers/peripheral/scb/cy_scb_uart.h **** *   The RX trigger signal is active until DMA reads all data from
 216:Generated_Source\PSoC6\pdl\drivers/peripheral/scb/cy_scb_uart.h **** *   the RX FIFO.</em>
 217:Generated_Source\PSoC6\pdl\drivers/peripheral/scb/cy_scb_uart.h **** *
 218:Generated_Source\PSoC6\pdl\drivers/peripheral/scb/cy_scb_uart.h **** * * The TX trigger signal is active while the number of data elements
 219:Generated_Source\PSoC6\pdl\drivers/peripheral/scb/cy_scb_uart.h **** *   in the TX FIFO is less than the value of TX FIFO level. Use function
 220:Generated_Source\PSoC6\pdl\drivers/peripheral/scb/cy_scb_uart.h **** *   \ref Cy_SCB_SetTxFifoLevel or set configuration structure txFifoTriggerLevel
 221:Generated_Source\PSoC6\pdl\drivers/peripheral/scb/cy_scb_uart.h **** *   parameter to configure TX FIFO level value. \n
 222:Generated_Source\PSoC6\pdl\drivers/peripheral/scb/cy_scb_uart.h **** *   <em>For example, the TX FIFO has 0 data elements (empty) and the TX FIFO level
 223:Generated_Source\PSoC6\pdl\drivers/peripheral/scb/cy_scb_uart.h **** *   is 7. The TX trigger signal is active until DMA loads TX FIFO
 224:Generated_Source\PSoC6\pdl\drivers/peripheral/scb/cy_scb_uart.h **** *   with 8 data elements (note that after the first TX load operation, the data 
 225:Generated_Source\PSoC6\pdl\drivers/peripheral/scb/cy_scb_uart.h **** *   element goes to the shift register and TX FIFO is empty).</em>
 226:Generated_Source\PSoC6\pdl\drivers/peripheral/scb/cy_scb_uart.h **** *
 227:Generated_Source\PSoC6\pdl\drivers/peripheral/scb/cy_scb_uart.h **** * To route SCB TX or RX trigger signals to DMA controller use \ref group_trigmux
 228:Generated_Source\PSoC6\pdl\drivers/peripheral/scb/cy_scb_uart.h **** * driver API.
 229:Generated_Source\PSoC6\pdl\drivers/peripheral/scb/cy_scb_uart.h **** *
ARM GAS  C:\Users\fatim\AppData\Local\Temp\ccJComZj.s 			page 7


 230:Generated_Source\PSoC6\pdl\drivers/peripheral/scb/cy_scb_uart.h **** * \note
 231:Generated_Source\PSoC6\pdl\drivers/peripheral/scb/cy_scb_uart.h **** * To properly handle DMA level request signal activation and de-activation from the SCB
 232:Generated_Source\PSoC6\pdl\drivers/peripheral/scb/cy_scb_uart.h **** * peripheral block the DMA Descriptor typically must be configured to re-trigger
 233:Generated_Source\PSoC6\pdl\drivers/peripheral/scb/cy_scb_uart.h **** * after 16 Clk_Slow cycles.
 234:Generated_Source\PSoC6\pdl\drivers/peripheral/scb/cy_scb_uart.h **** *
 235:Generated_Source\PSoC6\pdl\drivers/peripheral/scb/cy_scb_uart.h **** ********************************************************************************
 236:Generated_Source\PSoC6\pdl\drivers/peripheral/scb/cy_scb_uart.h **** * \section group_scb_uart_lp Low Power Support
 237:Generated_Source\PSoC6\pdl\drivers/peripheral/scb/cy_scb_uart.h **** ********************************************************************************
 238:Generated_Source\PSoC6\pdl\drivers/peripheral/scb/cy_scb_uart.h **** * The UART driver provides callback functions to handle power mode
 239:Generated_Source\PSoC6\pdl\drivers/peripheral/scb/cy_scb_uart.h **** * transition. The callback \ref Cy_SCB_UART_DeepSleepCallback must be called
 240:Generated_Source\PSoC6\pdl\drivers/peripheral/scb/cy_scb_uart.h **** * during execution of \ref Cy_SysPm_CpuEnterDeepSleep \ref Cy_SCB_UART_HibernateCallback
 241:Generated_Source\PSoC6\pdl\drivers/peripheral/scb/cy_scb_uart.h **** * must be called during execution of \ref Cy_SysPm_SystemEnterHibernate. To trigger the
 242:Generated_Source\PSoC6\pdl\drivers/peripheral/scb/cy_scb_uart.h **** * callback execution, the callback must be registered before calling the
 243:Generated_Source\PSoC6\pdl\drivers/peripheral/scb/cy_scb_uart.h **** * power mode transition function. Refer to \ref group_syspm driver for more
 244:Generated_Source\PSoC6\pdl\drivers/peripheral/scb/cy_scb_uart.h **** * information about power mode transitions and callback registration.
 245:Generated_Source\PSoC6\pdl\drivers/peripheral/scb/cy_scb_uart.h **** *
 246:Generated_Source\PSoC6\pdl\drivers/peripheral/scb/cy_scb_uart.h **** * The UART is disabled during Deep Sleep and Hibernate and stops driving 
 247:Generated_Source\PSoC6\pdl\drivers/peripheral/scb/cy_scb_uart.h **** * the output pins. The state of the UART output pins TX and RTS is High-Z, 
 248:Generated_Source\PSoC6\pdl\drivers/peripheral/scb/cy_scb_uart.h **** * which can cause unexpected behavior of the UART receiver due to possible
 249:Generated_Source\PSoC6\pdl\drivers/peripheral/scb/cy_scb_uart.h **** * glitches on these lines. These pins must be set to the inactive state before 
 250:Generated_Source\PSoC6\pdl\drivers/peripheral/scb/cy_scb_uart.h **** * entering Deep Sleep or Hibernate mode.
 251:Generated_Source\PSoC6\pdl\drivers/peripheral/scb/cy_scb_uart.h **** * These pins must keep the inactive level (the same state 
 252:Generated_Source\PSoC6\pdl\drivers/peripheral/scb/cy_scb_uart.h **** * when UART TX is enabled and does not transfer data) before entering Deep 
 253:Generated_Source\PSoC6\pdl\drivers/peripheral/scb/cy_scb_uart.h **** * Sleep or Hibernate mode. To do that, write the GPIO data register of each pin 
 254:Generated_Source\PSoC6\pdl\drivers/peripheral/scb/cy_scb_uart.h **** * to the inactive level for each output pin. Then configure High-Speed Input 
 255:Generated_Source\PSoC6\pdl\drivers/peripheral/scb/cy_scb_uart.h **** * Output Multiplexer (HSIOM) of each pin to be controlled by the GPIO (use 
 256:Generated_Source\PSoC6\pdl\drivers/peripheral/scb/cy_scb_uart.h **** * \ref group_gpio driver API). After exiting Deep Sleep mode the UART 
 257:Generated_Source\PSoC6\pdl\drivers/peripheral/scb/cy_scb_uart.h **** * must be enabled and the pins configuration restored to return the 
 258:Generated_Source\PSoC6\pdl\drivers/peripheral/scb/cy_scb_uart.h **** * UART control of the pins (after exiting Hibernate mode, the 
 259:Generated_Source\PSoC6\pdl\drivers/peripheral/scb/cy_scb_uart.h **** * system initialization code does the same). Copy either or 
 260:Generated_Source\PSoC6\pdl\drivers/peripheral/scb/cy_scb_uart.h **** * both \ref Cy_SCB_UART_DeepSleepCallback and \ref Cy_SCB_UART_HibernateCallback 
 261:Generated_Source\PSoC6\pdl\drivers/peripheral/scb/cy_scb_uart.h **** * as appropriate, and make the changes described above inside the function.
 262:Generated_Source\PSoC6\pdl\drivers/peripheral/scb/cy_scb_uart.h **** * Alternately, external pull-up or pull-down resistors can be connected 
 263:Generated_Source\PSoC6\pdl\drivers/peripheral/scb/cy_scb_uart.h **** * to the appropriate UART lines to keep them inactive during Deep-Sleep or 
 264:Generated_Source\PSoC6\pdl\drivers/peripheral/scb/cy_scb_uart.h **** * Hibernate.
 265:Generated_Source\PSoC6\pdl\drivers/peripheral/scb/cy_scb_uart.h **** *
 266:Generated_Source\PSoC6\pdl\drivers/peripheral/scb/cy_scb_uart.h **** ********************************************************************************
 267:Generated_Source\PSoC6\pdl\drivers/peripheral/scb/cy_scb_uart.h **** * \section group_scb_uart_more_information More Information
 268:Generated_Source\PSoC6\pdl\drivers/peripheral/scb/cy_scb_uart.h **** ********************************************************************************
 269:Generated_Source\PSoC6\pdl\drivers/peripheral/scb/cy_scb_uart.h **** * For more information on the SCB peripheral, refer to the technical reference
 270:Generated_Source\PSoC6\pdl\drivers/peripheral/scb/cy_scb_uart.h **** * manual (TRM).
 271:Generated_Source\PSoC6\pdl\drivers/peripheral/scb/cy_scb_uart.h **** *
 272:Generated_Source\PSoC6\pdl\drivers/peripheral/scb/cy_scb_uart.h **** ********************************************************************************
 273:Generated_Source\PSoC6\pdl\drivers/peripheral/scb/cy_scb_uart.h **** * \section group_scb_uart_MISRA MISRA-C Compliance
 274:Generated_Source\PSoC6\pdl\drivers/peripheral/scb/cy_scb_uart.h **** ********************************************************************************
 275:Generated_Source\PSoC6\pdl\drivers/peripheral/scb/cy_scb_uart.h **** * <table class="doxtable">
 276:Generated_Source\PSoC6\pdl\drivers/peripheral/scb/cy_scb_uart.h **** *   <tr>
 277:Generated_Source\PSoC6\pdl\drivers/peripheral/scb/cy_scb_uart.h **** *     <th>MISRA Rule</th>
 278:Generated_Source\PSoC6\pdl\drivers/peripheral/scb/cy_scb_uart.h **** *     <th>Rule Class (Required/Advisory)</th>
 279:Generated_Source\PSoC6\pdl\drivers/peripheral/scb/cy_scb_uart.h **** *     <th>Rule Description</th>
 280:Generated_Source\PSoC6\pdl\drivers/peripheral/scb/cy_scb_uart.h **** *     <th>Description of Deviation(s)</th>
 281:Generated_Source\PSoC6\pdl\drivers/peripheral/scb/cy_scb_uart.h **** *   </tr>
 282:Generated_Source\PSoC6\pdl\drivers/peripheral/scb/cy_scb_uart.h **** *   <tr>
 283:Generated_Source\PSoC6\pdl\drivers/peripheral/scb/cy_scb_uart.h **** *     <td>11.4</td>
 284:Generated_Source\PSoC6\pdl\drivers/peripheral/scb/cy_scb_uart.h **** *     <td>A</td>
 285:Generated_Source\PSoC6\pdl\drivers/peripheral/scb/cy_scb_uart.h **** *     <td>A cast should not be performed between a pointer to object type and
 286:Generated_Source\PSoC6\pdl\drivers/peripheral/scb/cy_scb_uart.h **** *         a different pointer to object type.</td>
ARM GAS  C:\Users\fatim\AppData\Local\Temp\ccJComZj.s 			page 8


 287:Generated_Source\PSoC6\pdl\drivers/peripheral/scb/cy_scb_uart.h **** *     <td>
 288:Generated_Source\PSoC6\pdl\drivers/peripheral/scb/cy_scb_uart.h **** *         * The pointer to the buffer memory is void to allow handling different
 289:Generated_Source\PSoC6\pdl\drivers/peripheral/scb/cy_scb_uart.h **** *         different data types: uint8_t (4-8 bits) or uint16_t (9-16 bits).
 290:Generated_Source\PSoC6\pdl\drivers/peripheral/scb/cy_scb_uart.h **** *         The cast operation is safe because the configuration is verified
 291:Generated_Source\PSoC6\pdl\drivers/peripheral/scb/cy_scb_uart.h **** *         before operation is performed.
 292:Generated_Source\PSoC6\pdl\drivers/peripheral/scb/cy_scb_uart.h **** *         * The functions \ref Cy_SCB_UART_DeepSleepCallback and
 293:Generated_Source\PSoC6\pdl\drivers/peripheral/scb/cy_scb_uart.h **** *         \ref Cy_SCB_UART_HibernateCallback are callback of
 294:Generated_Source\PSoC6\pdl\drivers/peripheral/scb/cy_scb_uart.h **** *         \ref cy_en_syspm_status_t type. The cast operation safety in these
 295:Generated_Source\PSoC6\pdl\drivers/peripheral/scb/cy_scb_uart.h **** *         functions becomes the user's responsibility because pointers are
 296:Generated_Source\PSoC6\pdl\drivers/peripheral/scb/cy_scb_uart.h **** *         initialized when callback is registered in SysPm driver.</td>
 297:Generated_Source\PSoC6\pdl\drivers/peripheral/scb/cy_scb_uart.h **** *   </tr>
 298:Generated_Source\PSoC6\pdl\drivers/peripheral/scb/cy_scb_uart.h **** *   <tr>
 299:Generated_Source\PSoC6\pdl\drivers/peripheral/scb/cy_scb_uart.h **** *     <td>14.2</td>
 300:Generated_Source\PSoC6\pdl\drivers/peripheral/scb/cy_scb_uart.h **** *     <td>R</td>
 301:Generated_Source\PSoC6\pdl\drivers/peripheral/scb/cy_scb_uart.h **** *     <td>All non-null statements shall either: a) have at least one side-effect
 302:Generated_Source\PSoC6\pdl\drivers/peripheral/scb/cy_scb_uart.h **** *         however executed, or b) cause control flow to change.</td>
 303:Generated_Source\PSoC6\pdl\drivers/peripheral/scb/cy_scb_uart.h **** *     <td>The unused function parameters are cast to void. This statement
 304:Generated_Source\PSoC6\pdl\drivers/peripheral/scb/cy_scb_uart.h **** *         has no side-effect and is used to suppress a compiler warning.</td>
 305:Generated_Source\PSoC6\pdl\drivers/peripheral/scb/cy_scb_uart.h **** *   </tr>
 306:Generated_Source\PSoC6\pdl\drivers/peripheral/scb/cy_scb_uart.h **** *   <tr>
 307:Generated_Source\PSoC6\pdl\drivers/peripheral/scb/cy_scb_uart.h **** *     <td>14.7</td>
 308:Generated_Source\PSoC6\pdl\drivers/peripheral/scb/cy_scb_uart.h **** *     <td>R</td>
 309:Generated_Source\PSoC6\pdl\drivers/peripheral/scb/cy_scb_uart.h **** *     <td>A function shall have a single point of exit at the end of the
 310:Generated_Source\PSoC6\pdl\drivers/peripheral/scb/cy_scb_uart.h **** *         function.</td>
 311:Generated_Source\PSoC6\pdl\drivers/peripheral/scb/cy_scb_uart.h **** *     <td>The functions can return from several points. This is done to improve
 312:Generated_Source\PSoC6\pdl\drivers/peripheral/scb/cy_scb_uart.h **** *         code clarity when returning error status code if input parameters
 313:Generated_Source\PSoC6\pdl\drivers/peripheral/scb/cy_scb_uart.h **** *         validation fails.</td>
 314:Generated_Source\PSoC6\pdl\drivers/peripheral/scb/cy_scb_uart.h **** *   </tr>
 315:Generated_Source\PSoC6\pdl\drivers/peripheral/scb/cy_scb_uart.h **** * </table>
 316:Generated_Source\PSoC6\pdl\drivers/peripheral/scb/cy_scb_uart.h **** *
 317:Generated_Source\PSoC6\pdl\drivers/peripheral/scb/cy_scb_uart.h **** * \section group_scb_uart_changelog Changelog
 318:Generated_Source\PSoC6\pdl\drivers/peripheral/scb/cy_scb_uart.h **** * <table class="doxtable">
 319:Generated_Source\PSoC6\pdl\drivers/peripheral/scb/cy_scb_uart.h **** *   <tr><th>Version</th><th>Changes</th><th>Reason for Change</th></tr>
 320:Generated_Source\PSoC6\pdl\drivers/peripheral/scb/cy_scb_uart.h **** *   <tr>
 321:Generated_Source\PSoC6\pdl\drivers/peripheral/scb/cy_scb_uart.h **** *     <td rowspan="2">2.20</td>
 322:Generated_Source\PSoC6\pdl\drivers/peripheral/scb/cy_scb_uart.h **** *     <td>Flattened the organization of the driver source code into the single 
 323:Generated_Source\PSoC6\pdl\drivers/peripheral/scb/cy_scb_uart.h **** *         source directory and the single include directory.
 324:Generated_Source\PSoC6\pdl\drivers/peripheral/scb/cy_scb_uart.h **** *     </td>
 325:Generated_Source\PSoC6\pdl\drivers/peripheral/scb/cy_scb_uart.h **** *     <td>Driver library directory-structure simplification.</td>
 326:Generated_Source\PSoC6\pdl\drivers/peripheral/scb/cy_scb_uart.h **** *   </tr>
 327:Generated_Source\PSoC6\pdl\drivers/peripheral/scb/cy_scb_uart.h **** *   <tr>
 328:Generated_Source\PSoC6\pdl\drivers/peripheral/scb/cy_scb_uart.h **** *     <td>Added register access layer. Use register access macros instead
 329:Generated_Source\PSoC6\pdl\drivers/peripheral/scb/cy_scb_uart.h **** *         of direct register access using dereferenced pointers.</td>
 330:Generated_Source\PSoC6\pdl\drivers/peripheral/scb/cy_scb_uart.h **** *     <td>Makes register access device-independent, so that the PDL does 
 331:Generated_Source\PSoC6\pdl\drivers/peripheral/scb/cy_scb_uart.h **** *         not need to be recompiled for each supported part number.</td>
 332:Generated_Source\PSoC6\pdl\drivers/peripheral/scb/cy_scb_uart.h **** *   </tr>
 333:Generated_Source\PSoC6\pdl\drivers/peripheral/scb/cy_scb_uart.h **** *   <tr>
 334:Generated_Source\PSoC6\pdl\drivers/peripheral/scb/cy_scb_uart.h **** *     <td>2.10</td>
 335:Generated_Source\PSoC6\pdl\drivers/peripheral/scb/cy_scb_uart.h **** *     <td>None.</td>
 336:Generated_Source\PSoC6\pdl\drivers/peripheral/scb/cy_scb_uart.h **** *     <td>SCB I2C driver updated.</td>
 337:Generated_Source\PSoC6\pdl\drivers/peripheral/scb/cy_scb_uart.h **** *   </tr>
 338:Generated_Source\PSoC6\pdl\drivers/peripheral/scb/cy_scb_uart.h **** *   <tr>
 339:Generated_Source\PSoC6\pdl\drivers/peripheral/scb/cy_scb_uart.h **** *     <td rowspan="5">2.0</td>
 340:Generated_Source\PSoC6\pdl\drivers/peripheral/scb/cy_scb_uart.h **** *     <td>Added parameters validation for public API.</td>
 341:Generated_Source\PSoC6\pdl\drivers/peripheral/scb/cy_scb_uart.h **** *     <td></td>
 342:Generated_Source\PSoC6\pdl\drivers/peripheral/scb/cy_scb_uart.h **** *   </tr>
 343:Generated_Source\PSoC6\pdl\drivers/peripheral/scb/cy_scb_uart.h **** *   <tr>
ARM GAS  C:\Users\fatim\AppData\Local\Temp\ccJComZj.s 			page 9


 344:Generated_Source\PSoC6\pdl\drivers/peripheral/scb/cy_scb_uart.h **** *     <td>Replaced variables that have limited range of values with enumerated
 345:Generated_Source\PSoC6\pdl\drivers/peripheral/scb/cy_scb_uart.h **** *         types.</td>
 346:Generated_Source\PSoC6\pdl\drivers/peripheral/scb/cy_scb_uart.h **** *     <td></td>
 347:Generated_Source\PSoC6\pdl\drivers/peripheral/scb/cy_scb_uart.h **** *   </tr>
 348:Generated_Source\PSoC6\pdl\drivers/peripheral/scb/cy_scb_uart.h **** *   <tr>
 349:Generated_Source\PSoC6\pdl\drivers/peripheral/scb/cy_scb_uart.h **** *     <td>Added missing "cy_cb_" to the callback function type names.</td>
 350:Generated_Source\PSoC6\pdl\drivers/peripheral/scb/cy_scb_uart.h **** *     <td></td>
 351:Generated_Source\PSoC6\pdl\drivers/peripheral/scb/cy_scb_uart.h **** *   </tr>
 352:Generated_Source\PSoC6\pdl\drivers/peripheral/scb/cy_scb_uart.h **** *   <tr>
 353:Generated_Source\PSoC6\pdl\drivers/peripheral/scb/cy_scb_uart.h **** *     <td>Added function \ref Cy_SCB_UART_SendBreakBlocking for break condition
 354:Generated_Source\PSoC6\pdl\drivers/peripheral/scb/cy_scb_uart.h **** *         generation.</td>
 355:Generated_Source\PSoC6\pdl\drivers/peripheral/scb/cy_scb_uart.h **** *     <td></td>
 356:Generated_Source\PSoC6\pdl\drivers/peripheral/scb/cy_scb_uart.h **** *   </tr>
 357:Generated_Source\PSoC6\pdl\drivers/peripheral/scb/cy_scb_uart.h **** *   <tr>
 358:Generated_Source\PSoC6\pdl\drivers/peripheral/scb/cy_scb_uart.h **** *     <td>Fixed low power callbacks \ref Cy_SCB_UART_DeepSleepCallback and
 359:Generated_Source\PSoC6\pdl\drivers/peripheral/scb/cy_scb_uart.h **** *         \ref Cy_SCB_UART_HibernateCallback to prevent the device from entering
 360:Generated_Source\PSoC6\pdl\drivers/peripheral/scb/cy_scb_uart.h **** *         low power mode when RX FIFO is not empty.</td>
 361:Generated_Source\PSoC6\pdl\drivers/peripheral/scb/cy_scb_uart.h **** *     <td>The callbacks allowed entering device into low power mode when RX FIFO
 362:Generated_Source\PSoC6\pdl\drivers/peripheral/scb/cy_scb_uart.h **** *         had data.</td>
 363:Generated_Source\PSoC6\pdl\drivers/peripheral/scb/cy_scb_uart.h **** *   </tr>
 364:Generated_Source\PSoC6\pdl\drivers/peripheral/scb/cy_scb_uart.h **** *   <tr>
 365:Generated_Source\PSoC6\pdl\drivers/peripheral/scb/cy_scb_uart.h **** *     <td>1.0</td>
 366:Generated_Source\PSoC6\pdl\drivers/peripheral/scb/cy_scb_uart.h **** *     <td>Initial version.</td>
 367:Generated_Source\PSoC6\pdl\drivers/peripheral/scb/cy_scb_uart.h **** *     <td></td>
 368:Generated_Source\PSoC6\pdl\drivers/peripheral/scb/cy_scb_uart.h **** *   </tr>
 369:Generated_Source\PSoC6\pdl\drivers/peripheral/scb/cy_scb_uart.h **** * </table>
 370:Generated_Source\PSoC6\pdl\drivers/peripheral/scb/cy_scb_uart.h **** *
 371:Generated_Source\PSoC6\pdl\drivers/peripheral/scb/cy_scb_uart.h **** * \defgroup group_scb_uart_macros Macros
 372:Generated_Source\PSoC6\pdl\drivers/peripheral/scb/cy_scb_uart.h **** * \defgroup group_scb_uart_functions Functions
 373:Generated_Source\PSoC6\pdl\drivers/peripheral/scb/cy_scb_uart.h **** * \{
 374:Generated_Source\PSoC6\pdl\drivers/peripheral/scb/cy_scb_uart.h **** * \defgroup group_scb_uart_general_functions General
 375:Generated_Source\PSoC6\pdl\drivers/peripheral/scb/cy_scb_uart.h **** * \defgroup group_scb_uart_high_level_functions High-Level
 376:Generated_Source\PSoC6\pdl\drivers/peripheral/scb/cy_scb_uart.h **** * \defgroup group_scb_uart_low_level_functions Low-Level
 377:Generated_Source\PSoC6\pdl\drivers/peripheral/scb/cy_scb_uart.h **** * \defgroup group_scb_uart_interrupt_functions Interrupt
 378:Generated_Source\PSoC6\pdl\drivers/peripheral/scb/cy_scb_uart.h **** * \defgroup group_scb_uart_low_power_functions Low Power Callbacks
 379:Generated_Source\PSoC6\pdl\drivers/peripheral/scb/cy_scb_uart.h **** * \}
 380:Generated_Source\PSoC6\pdl\drivers/peripheral/scb/cy_scb_uart.h **** * \defgroup group_scb_uart_data_structures Data Structures
 381:Generated_Source\PSoC6\pdl\drivers/peripheral/scb/cy_scb_uart.h **** * \defgroup group_scb_uart_enums Enumerated Types
 382:Generated_Source\PSoC6\pdl\drivers/peripheral/scb/cy_scb_uart.h **** */
 383:Generated_Source\PSoC6\pdl\drivers/peripheral/scb/cy_scb_uart.h **** 
 384:Generated_Source\PSoC6\pdl\drivers/peripheral/scb/cy_scb_uart.h **** #if !defined(CY_SCB_UART_H)
 385:Generated_Source\PSoC6\pdl\drivers/peripheral/scb/cy_scb_uart.h **** #define CY_SCB_UART_H
 386:Generated_Source\PSoC6\pdl\drivers/peripheral/scb/cy_scb_uart.h **** 
 387:Generated_Source\PSoC6\pdl\drivers/peripheral/scb/cy_scb_uart.h **** #include "cy_scb_common.h"
 388:Generated_Source\PSoC6\pdl\drivers/peripheral/scb/cy_scb_uart.h **** 
 389:Generated_Source\PSoC6\pdl\drivers/peripheral/scb/cy_scb_uart.h **** #if defined(__cplusplus)
 390:Generated_Source\PSoC6\pdl\drivers/peripheral/scb/cy_scb_uart.h **** extern "C" {
 391:Generated_Source\PSoC6\pdl\drivers/peripheral/scb/cy_scb_uart.h **** #endif
 392:Generated_Source\PSoC6\pdl\drivers/peripheral/scb/cy_scb_uart.h **** 
 393:Generated_Source\PSoC6\pdl\drivers/peripheral/scb/cy_scb_uart.h **** /***************************************
 394:Generated_Source\PSoC6\pdl\drivers/peripheral/scb/cy_scb_uart.h **** *          Enumerated Types
 395:Generated_Source\PSoC6\pdl\drivers/peripheral/scb/cy_scb_uart.h **** ***************************************/
 396:Generated_Source\PSoC6\pdl\drivers/peripheral/scb/cy_scb_uart.h **** 
 397:Generated_Source\PSoC6\pdl\drivers/peripheral/scb/cy_scb_uart.h **** /**
 398:Generated_Source\PSoC6\pdl\drivers/peripheral/scb/cy_scb_uart.h **** * \addtogroup group_scb_uart_enums
 399:Generated_Source\PSoC6\pdl\drivers/peripheral/scb/cy_scb_uart.h **** * \{
 400:Generated_Source\PSoC6\pdl\drivers/peripheral/scb/cy_scb_uart.h **** */
ARM GAS  C:\Users\fatim\AppData\Local\Temp\ccJComZj.s 			page 10


 401:Generated_Source\PSoC6\pdl\drivers/peripheral/scb/cy_scb_uart.h **** 
 402:Generated_Source\PSoC6\pdl\drivers/peripheral/scb/cy_scb_uart.h **** /** UART status codes */
 403:Generated_Source\PSoC6\pdl\drivers/peripheral/scb/cy_scb_uart.h **** typedef enum
 404:Generated_Source\PSoC6\pdl\drivers/peripheral/scb/cy_scb_uart.h **** {
 405:Generated_Source\PSoC6\pdl\drivers/peripheral/scb/cy_scb_uart.h ****     /** Operation completed successfully */
 406:Generated_Source\PSoC6\pdl\drivers/peripheral/scb/cy_scb_uart.h ****     CY_SCB_UART_SUCCESS = 0U,
 407:Generated_Source\PSoC6\pdl\drivers/peripheral/scb/cy_scb_uart.h **** 
 408:Generated_Source\PSoC6\pdl\drivers/peripheral/scb/cy_scb_uart.h ****     /** One or more of input parameters are invalid */
 409:Generated_Source\PSoC6\pdl\drivers/peripheral/scb/cy_scb_uart.h ****     CY_SCB_UART_BAD_PARAM = (CY_SCB_ID | CY_PDL_STATUS_ERROR | CY_SCB_UART_ID | 1U),
 410:Generated_Source\PSoC6\pdl\drivers/peripheral/scb/cy_scb_uart.h **** 
 411:Generated_Source\PSoC6\pdl\drivers/peripheral/scb/cy_scb_uart.h ****     /**
 412:Generated_Source\PSoC6\pdl\drivers/peripheral/scb/cy_scb_uart.h ****     * The UART is busy processing a receive operation.
 413:Generated_Source\PSoC6\pdl\drivers/peripheral/scb/cy_scb_uart.h ****     */
 414:Generated_Source\PSoC6\pdl\drivers/peripheral/scb/cy_scb_uart.h ****     CY_SCB_UART_RECEIVE_BUSY = (CY_SCB_ID | CY_PDL_STATUS_ERROR | CY_SCB_UART_ID | 2U),
 415:Generated_Source\PSoC6\pdl\drivers/peripheral/scb/cy_scb_uart.h **** 
 416:Generated_Source\PSoC6\pdl\drivers/peripheral/scb/cy_scb_uart.h ****     /**
 417:Generated_Source\PSoC6\pdl\drivers/peripheral/scb/cy_scb_uart.h ****     * The UART is busy processing a transmit operation.
 418:Generated_Source\PSoC6\pdl\drivers/peripheral/scb/cy_scb_uart.h ****     */
 419:Generated_Source\PSoC6\pdl\drivers/peripheral/scb/cy_scb_uart.h ****     CY_SCB_UART_TRANSMIT_BUSY = (CY_SCB_ID | CY_PDL_STATUS_ERROR | CY_SCB_UART_ID | 3U)
 420:Generated_Source\PSoC6\pdl\drivers/peripheral/scb/cy_scb_uart.h **** } cy_en_scb_uart_status_t;
 421:Generated_Source\PSoC6\pdl\drivers/peripheral/scb/cy_scb_uart.h **** 
 422:Generated_Source\PSoC6\pdl\drivers/peripheral/scb/cy_scb_uart.h **** /** UART Mode */
 423:Generated_Source\PSoC6\pdl\drivers/peripheral/scb/cy_scb_uart.h **** typedef enum
 424:Generated_Source\PSoC6\pdl\drivers/peripheral/scb/cy_scb_uart.h **** {
 425:Generated_Source\PSoC6\pdl\drivers/peripheral/scb/cy_scb_uart.h ****     CY_SCB_UART_STANDARD  = 0U, /**< Configures the SCB for Standard UART operation */
 426:Generated_Source\PSoC6\pdl\drivers/peripheral/scb/cy_scb_uart.h ****     CY_SCB_UART_SMARTCARD = 1U, /**< Configures the SCB for SmartCard operation */
 427:Generated_Source\PSoC6\pdl\drivers/peripheral/scb/cy_scb_uart.h ****     CY_SCB_UART_IRDA      = 2U, /**< Configures the SCB for IrDA operation */
 428:Generated_Source\PSoC6\pdl\drivers/peripheral/scb/cy_scb_uart.h **** } cy_en_scb_uart_mode_t;
 429:Generated_Source\PSoC6\pdl\drivers/peripheral/scb/cy_scb_uart.h **** 
 430:Generated_Source\PSoC6\pdl\drivers/peripheral/scb/cy_scb_uart.h **** /** UART Stop Bits */
 431:Generated_Source\PSoC6\pdl\drivers/peripheral/scb/cy_scb_uart.h **** typedef enum
 432:Generated_Source\PSoC6\pdl\drivers/peripheral/scb/cy_scb_uart.h **** {
 433:Generated_Source\PSoC6\pdl\drivers/peripheral/scb/cy_scb_uart.h ****     CY_SCB_UART_STOP_BITS_1   = 2U,  /**< UART looks for 1 Stop Bit    */
 434:Generated_Source\PSoC6\pdl\drivers/peripheral/scb/cy_scb_uart.h ****     CY_SCB_UART_STOP_BITS_1_5 = 3U,  /**< UART looks for 1.5 Stop Bits */
 435:Generated_Source\PSoC6\pdl\drivers/peripheral/scb/cy_scb_uart.h ****     CY_SCB_UART_STOP_BITS_2   = 4U,  /**< UART looks for 2 Stop Bits   */
 436:Generated_Source\PSoC6\pdl\drivers/peripheral/scb/cy_scb_uart.h ****     CY_SCB_UART_STOP_BITS_2_5 = 5U,  /**< UART looks for 2.5 Stop Bits */
 437:Generated_Source\PSoC6\pdl\drivers/peripheral/scb/cy_scb_uart.h ****     CY_SCB_UART_STOP_BITS_3   = 6U,  /**< UART looks for 3 Stop Bits   */
 438:Generated_Source\PSoC6\pdl\drivers/peripheral/scb/cy_scb_uart.h ****     CY_SCB_UART_STOP_BITS_3_5 = 7U,  /**< UART looks for 3.5 Stop Bits */
 439:Generated_Source\PSoC6\pdl\drivers/peripheral/scb/cy_scb_uart.h ****     CY_SCB_UART_STOP_BITS_4   = 8U,  /**< UART looks for 4 Stop Bits   */
 440:Generated_Source\PSoC6\pdl\drivers/peripheral/scb/cy_scb_uart.h **** } cy_en_scb_uart_stop_bits_t;
 441:Generated_Source\PSoC6\pdl\drivers/peripheral/scb/cy_scb_uart.h **** 
 442:Generated_Source\PSoC6\pdl\drivers/peripheral/scb/cy_scb_uart.h **** /** UART Parity */
 443:Generated_Source\PSoC6\pdl\drivers/peripheral/scb/cy_scb_uart.h **** typedef enum
 444:Generated_Source\PSoC6\pdl\drivers/peripheral/scb/cy_scb_uart.h **** {
 445:Generated_Source\PSoC6\pdl\drivers/peripheral/scb/cy_scb_uart.h ****     CY_SCB_UART_PARITY_NONE = 0U,    /**< UART has no parity check   */
 446:Generated_Source\PSoC6\pdl\drivers/peripheral/scb/cy_scb_uart.h ****     CY_SCB_UART_PARITY_EVEN = 2U,    /**< UART has even parity check */
 447:Generated_Source\PSoC6\pdl\drivers/peripheral/scb/cy_scb_uart.h ****     CY_SCB_UART_PARITY_ODD  = 3U,    /**< UART has odd parity check  */
 448:Generated_Source\PSoC6\pdl\drivers/peripheral/scb/cy_scb_uart.h **** } cy_en_scb_uart_parity_t;
 449:Generated_Source\PSoC6\pdl\drivers/peripheral/scb/cy_scb_uart.h **** 
 450:Generated_Source\PSoC6\pdl\drivers/peripheral/scb/cy_scb_uart.h **** /** UART Polarity */
 451:Generated_Source\PSoC6\pdl\drivers/peripheral/scb/cy_scb_uart.h **** typedef enum
 452:Generated_Source\PSoC6\pdl\drivers/peripheral/scb/cy_scb_uart.h **** {
 453:Generated_Source\PSoC6\pdl\drivers/peripheral/scb/cy_scb_uart.h ****     CY_SCB_UART_ACTIVE_LOW  = 0U,   /**< Signal is active low */
 454:Generated_Source\PSoC6\pdl\drivers/peripheral/scb/cy_scb_uart.h ****     CY_SCB_UART_ACTIVE_HIGH = 1U,   /**< Signal is active high */
 455:Generated_Source\PSoC6\pdl\drivers/peripheral/scb/cy_scb_uart.h **** } cy_en_scb_uart_polarity_t;
 456:Generated_Source\PSoC6\pdl\drivers/peripheral/scb/cy_scb_uart.h **** /** \} group_scb_uart_enums */
 457:Generated_Source\PSoC6\pdl\drivers/peripheral/scb/cy_scb_uart.h **** 
ARM GAS  C:\Users\fatim\AppData\Local\Temp\ccJComZj.s 			page 11


 458:Generated_Source\PSoC6\pdl\drivers/peripheral/scb/cy_scb_uart.h **** 
 459:Generated_Source\PSoC6\pdl\drivers/peripheral/scb/cy_scb_uart.h **** /*******************************************************************************
 460:Generated_Source\PSoC6\pdl\drivers/peripheral/scb/cy_scb_uart.h **** *                           Type Definitions
 461:Generated_Source\PSoC6\pdl\drivers/peripheral/scb/cy_scb_uart.h **** *******************************************************************************/
 462:Generated_Source\PSoC6\pdl\drivers/peripheral/scb/cy_scb_uart.h **** 
 463:Generated_Source\PSoC6\pdl\drivers/peripheral/scb/cy_scb_uart.h **** /**
 464:Generated_Source\PSoC6\pdl\drivers/peripheral/scb/cy_scb_uart.h **** * \addtogroup group_scb_uart_data_structures
 465:Generated_Source\PSoC6\pdl\drivers/peripheral/scb/cy_scb_uart.h **** * \{
 466:Generated_Source\PSoC6\pdl\drivers/peripheral/scb/cy_scb_uart.h **** */
 467:Generated_Source\PSoC6\pdl\drivers/peripheral/scb/cy_scb_uart.h **** 
 468:Generated_Source\PSoC6\pdl\drivers/peripheral/scb/cy_scb_uart.h **** /**
 469:Generated_Source\PSoC6\pdl\drivers/peripheral/scb/cy_scb_uart.h **** * Provides the typedef for the callback function called in the
 470:Generated_Source\PSoC6\pdl\drivers/peripheral/scb/cy_scb_uart.h **** * \ref Cy_SCB_UART_Interrupt to notify the user about occurrences of
 471:Generated_Source\PSoC6\pdl\drivers/peripheral/scb/cy_scb_uart.h **** * \ref group_scb_uart_macros_callback_events.
 472:Generated_Source\PSoC6\pdl\drivers/peripheral/scb/cy_scb_uart.h **** */
 473:Generated_Source\PSoC6\pdl\drivers/peripheral/scb/cy_scb_uart.h **** typedef void (* cy_cb_scb_uart_handle_events_t)(uint32_t event);
 474:Generated_Source\PSoC6\pdl\drivers/peripheral/scb/cy_scb_uart.h **** 
 475:Generated_Source\PSoC6\pdl\drivers/peripheral/scb/cy_scb_uart.h **** /** UART configuration structure */
 476:Generated_Source\PSoC6\pdl\drivers/peripheral/scb/cy_scb_uart.h **** typedef struct stc_scb_uart_config
 477:Generated_Source\PSoC6\pdl\drivers/peripheral/scb/cy_scb_uart.h **** {
 478:Generated_Source\PSoC6\pdl\drivers/peripheral/scb/cy_scb_uart.h ****     /** Specifies the UART's mode of operation */
 479:Generated_Source\PSoC6\pdl\drivers/peripheral/scb/cy_scb_uart.h ****     cy_en_scb_uart_mode_t    uartMode;
 480:Generated_Source\PSoC6\pdl\drivers/peripheral/scb/cy_scb_uart.h **** 
 481:Generated_Source\PSoC6\pdl\drivers/peripheral/scb/cy_scb_uart.h ****     /**
 482:Generated_Source\PSoC6\pdl\drivers/peripheral/scb/cy_scb_uart.h ****     * Oversample factor for UART.
 483:Generated_Source\PSoC6\pdl\drivers/peripheral/scb/cy_scb_uart.h ****     * * The UART baud rate is the SCB Clock frequency / oversample
 484:Generated_Source\PSoC6\pdl\drivers/peripheral/scb/cy_scb_uart.h ****     *  (valid range is 8-16).
 485:Generated_Source\PSoC6\pdl\drivers/peripheral/scb/cy_scb_uart.h ****     * * For IrDA, the oversample is always 16, unless
 486:Generated_Source\PSoC6\pdl\drivers/peripheral/scb/cy_scb_uart.h ****     * \ref irdaEnableLowPowerReceiver is enabled. Then the oversample is
 487:Generated_Source\PSoC6\pdl\drivers/peripheral/scb/cy_scb_uart.h ****     * reduced to the \ref group_scb_uart_macros_irda_lp_ovs set.
 488:Generated_Source\PSoC6\pdl\drivers/peripheral/scb/cy_scb_uart.h ****     */
 489:Generated_Source\PSoC6\pdl\drivers/peripheral/scb/cy_scb_uart.h ****     uint32_t    oversample;
 490:Generated_Source\PSoC6\pdl\drivers/peripheral/scb/cy_scb_uart.h **** 
 491:Generated_Source\PSoC6\pdl\drivers/peripheral/scb/cy_scb_uart.h ****     /** The width of UART data (valid range is 5 to 9) */
 492:Generated_Source\PSoC6\pdl\drivers/peripheral/scb/cy_scb_uart.h ****     uint32_t    dataWidth;
 493:Generated_Source\PSoC6\pdl\drivers/peripheral/scb/cy_scb_uart.h **** 
 494:Generated_Source\PSoC6\pdl\drivers/peripheral/scb/cy_scb_uart.h ****     /**
 495:Generated_Source\PSoC6\pdl\drivers/peripheral/scb/cy_scb_uart.h ****     * Enables the hardware to shift out data element MSB first; otherwise,
 496:Generated_Source\PSoC6\pdl\drivers/peripheral/scb/cy_scb_uart.h ****     * LSB first
 497:Generated_Source\PSoC6\pdl\drivers/peripheral/scb/cy_scb_uart.h ****     */
 498:Generated_Source\PSoC6\pdl\drivers/peripheral/scb/cy_scb_uart.h ****     bool        enableMsbFirst;
 499:Generated_Source\PSoC6\pdl\drivers/peripheral/scb/cy_scb_uart.h **** 
 500:Generated_Source\PSoC6\pdl\drivers/peripheral/scb/cy_scb_uart.h ****     /**
 501:Generated_Source\PSoC6\pdl\drivers/peripheral/scb/cy_scb_uart.h ****     * Specifies the number of stop bits in the UART transaction, in half-bit
 502:Generated_Source\PSoC6\pdl\drivers/peripheral/scb/cy_scb_uart.h ****     * increments
 503:Generated_Source\PSoC6\pdl\drivers/peripheral/scb/cy_scb_uart.h ****     */
 504:Generated_Source\PSoC6\pdl\drivers/peripheral/scb/cy_scb_uart.h ****     cy_en_scb_uart_stop_bits_t    stopBits;
 505:Generated_Source\PSoC6\pdl\drivers/peripheral/scb/cy_scb_uart.h **** 
 506:Generated_Source\PSoC6\pdl\drivers/peripheral/scb/cy_scb_uart.h ****     /** Configures the UART parity */
 507:Generated_Source\PSoC6\pdl\drivers/peripheral/scb/cy_scb_uart.h ****     cy_en_scb_uart_parity_t    parity;
 508:Generated_Source\PSoC6\pdl\drivers/peripheral/scb/cy_scb_uart.h **** 
 509:Generated_Source\PSoC6\pdl\drivers/peripheral/scb/cy_scb_uart.h ****     /**
 510:Generated_Source\PSoC6\pdl\drivers/peripheral/scb/cy_scb_uart.h ****     * Enables a digital 3-tap median filter (2 out of 3 voting) to be applied 
 511:Generated_Source\PSoC6\pdl\drivers/peripheral/scb/cy_scb_uart.h ****     * to the input of the RX FIFO to filter glitches on the line (for IrDA, 
 512:Generated_Source\PSoC6\pdl\drivers/peripheral/scb/cy_scb_uart.h ****     * this parameter is ignored)
 513:Generated_Source\PSoC6\pdl\drivers/peripheral/scb/cy_scb_uart.h ****     *
 514:Generated_Source\PSoC6\pdl\drivers/peripheral/scb/cy_scb_uart.h ****     */
ARM GAS  C:\Users\fatim\AppData\Local\Temp\ccJComZj.s 			page 12


 515:Generated_Source\PSoC6\pdl\drivers/peripheral/scb/cy_scb_uart.h ****     bool        enableInputFilter;
 516:Generated_Source\PSoC6\pdl\drivers/peripheral/scb/cy_scb_uart.h **** 
 517:Generated_Source\PSoC6\pdl\drivers/peripheral/scb/cy_scb_uart.h ****     /**
 518:Generated_Source\PSoC6\pdl\drivers/peripheral/scb/cy_scb_uart.h ****     * Enables the hardware to drop data in the RX FIFO when a parity error is
 519:Generated_Source\PSoC6\pdl\drivers/peripheral/scb/cy_scb_uart.h ****     * detected
 520:Generated_Source\PSoC6\pdl\drivers/peripheral/scb/cy_scb_uart.h ****     */
 521:Generated_Source\PSoC6\pdl\drivers/peripheral/scb/cy_scb_uart.h ****     bool        dropOnParityError;
 522:Generated_Source\PSoC6\pdl\drivers/peripheral/scb/cy_scb_uart.h **** 
 523:Generated_Source\PSoC6\pdl\drivers/peripheral/scb/cy_scb_uart.h ****     /**
 524:Generated_Source\PSoC6\pdl\drivers/peripheral/scb/cy_scb_uart.h ****     * Enables the hardware to drop data in the RX FIFO when a frame error is
 525:Generated_Source\PSoC6\pdl\drivers/peripheral/scb/cy_scb_uart.h ****     * detected
 526:Generated_Source\PSoC6\pdl\drivers/peripheral/scb/cy_scb_uart.h ****     */
 527:Generated_Source\PSoC6\pdl\drivers/peripheral/scb/cy_scb_uart.h ****     bool        dropOnFrameError;
 528:Generated_Source\PSoC6\pdl\drivers/peripheral/scb/cy_scb_uart.h **** 
 529:Generated_Source\PSoC6\pdl\drivers/peripheral/scb/cy_scb_uart.h ****     /**
 530:Generated_Source\PSoC6\pdl\drivers/peripheral/scb/cy_scb_uart.h ****     * Enables the UART operation in Multi-Processor mode which requires
 531:Generated_Source\PSoC6\pdl\drivers/peripheral/scb/cy_scb_uart.h ****     * dataWidth to be 9 bits (the 9th bit is used to indicate address byte)
 532:Generated_Source\PSoC6\pdl\drivers/peripheral/scb/cy_scb_uart.h ****     */
 533:Generated_Source\PSoC6\pdl\drivers/peripheral/scb/cy_scb_uart.h ****     bool        enableMutliProcessorMode;
 534:Generated_Source\PSoC6\pdl\drivers/peripheral/scb/cy_scb_uart.h **** 
 535:Generated_Source\PSoC6\pdl\drivers/peripheral/scb/cy_scb_uart.h ****     /**
 536:Generated_Source\PSoC6\pdl\drivers/peripheral/scb/cy_scb_uart.h ****     * If Multi Processor mode is enabled, this is the address of the RX
 537:Generated_Source\PSoC6\pdl\drivers/peripheral/scb/cy_scb_uart.h ****     * FIFO. If the address matches, data is accepted into the FIFO. If
 538:Generated_Source\PSoC6\pdl\drivers/peripheral/scb/cy_scb_uart.h ****     * it does not match, the data is ignored.
 539:Generated_Source\PSoC6\pdl\drivers/peripheral/scb/cy_scb_uart.h ****     */
 540:Generated_Source\PSoC6\pdl\drivers/peripheral/scb/cy_scb_uart.h ****     uint32_t    receiverAddress;
 541:Generated_Source\PSoC6\pdl\drivers/peripheral/scb/cy_scb_uart.h **** 
 542:Generated_Source\PSoC6\pdl\drivers/peripheral/scb/cy_scb_uart.h ****     /**
 543:Generated_Source\PSoC6\pdl\drivers/peripheral/scb/cy_scb_uart.h ****     * This is the address mask for the Multi Processor address. 1 indicates
 544:Generated_Source\PSoC6\pdl\drivers/peripheral/scb/cy_scb_uart.h ****     * that the incoming address must match the corresponding bit in the slave
 545:Generated_Source\PSoC6\pdl\drivers/peripheral/scb/cy_scb_uart.h ****     * address. A 0 in the mask indicates that the incoming address does
 546:Generated_Source\PSoC6\pdl\drivers/peripheral/scb/cy_scb_uart.h ****     * not need to match.
 547:Generated_Source\PSoC6\pdl\drivers/peripheral/scb/cy_scb_uart.h ****     */
 548:Generated_Source\PSoC6\pdl\drivers/peripheral/scb/cy_scb_uart.h ****     uint32_t    receiverAddressMask;
 549:Generated_Source\PSoC6\pdl\drivers/peripheral/scb/cy_scb_uart.h **** 
 550:Generated_Source\PSoC6\pdl\drivers/peripheral/scb/cy_scb_uart.h ****     /**
 551:Generated_Source\PSoC6\pdl\drivers/peripheral/scb/cy_scb_uart.h ****     * Enables the hardware to accept the matching address in the RX FIFO.
 552:Generated_Source\PSoC6\pdl\drivers/peripheral/scb/cy_scb_uart.h ****     * This is useful when the device supports more than one address.
 553:Generated_Source\PSoC6\pdl\drivers/peripheral/scb/cy_scb_uart.h ****     */
 554:Generated_Source\PSoC6\pdl\drivers/peripheral/scb/cy_scb_uart.h ****     bool        acceptAddrInFifo;
 555:Generated_Source\PSoC6\pdl\drivers/peripheral/scb/cy_scb_uart.h **** 
 556:Generated_Source\PSoC6\pdl\drivers/peripheral/scb/cy_scb_uart.h ****     /** Inverts the IrDA RX input */
 557:Generated_Source\PSoC6\pdl\drivers/peripheral/scb/cy_scb_uart.h ****     bool        irdaInvertRx;
 558:Generated_Source\PSoC6\pdl\drivers/peripheral/scb/cy_scb_uart.h **** 
 559:Generated_Source\PSoC6\pdl\drivers/peripheral/scb/cy_scb_uart.h ****     /**
 560:Generated_Source\PSoC6\pdl\drivers/peripheral/scb/cy_scb_uart.h ****     * Enables the low-power receive for IrDA mode.
 561:Generated_Source\PSoC6\pdl\drivers/peripheral/scb/cy_scb_uart.h ****     * Note that the transmission must be disabled if this mode is enabled.
 562:Generated_Source\PSoC6\pdl\drivers/peripheral/scb/cy_scb_uart.h ****     */
 563:Generated_Source\PSoC6\pdl\drivers/peripheral/scb/cy_scb_uart.h ****     bool        irdaEnableLowPowerReceiver;
 564:Generated_Source\PSoC6\pdl\drivers/peripheral/scb/cy_scb_uart.h **** 
 565:Generated_Source\PSoC6\pdl\drivers/peripheral/scb/cy_scb_uart.h ****     /**
 566:Generated_Source\PSoC6\pdl\drivers/peripheral/scb/cy_scb_uart.h ****     * Enables retransmission of the frame placed in the TX FIFO when
 567:Generated_Source\PSoC6\pdl\drivers/peripheral/scb/cy_scb_uart.h ****     * NACK is received in SmartCard mode (for Standard and IrDA , this parameter
 568:Generated_Source\PSoC6\pdl\drivers/peripheral/scb/cy_scb_uart.h ****     * is ignored)
 569:Generated_Source\PSoC6\pdl\drivers/peripheral/scb/cy_scb_uart.h ****     */
 570:Generated_Source\PSoC6\pdl\drivers/peripheral/scb/cy_scb_uart.h ****     bool        smartCardRetryOnNack;
 571:Generated_Source\PSoC6\pdl\drivers/peripheral/scb/cy_scb_uart.h **** 
ARM GAS  C:\Users\fatim\AppData\Local\Temp\ccJComZj.s 			page 13


 572:Generated_Source\PSoC6\pdl\drivers/peripheral/scb/cy_scb_uart.h ****     /**
 573:Generated_Source\PSoC6\pdl\drivers/peripheral/scb/cy_scb_uart.h ****     * Enables the usage of the CTS input signal for the transmitter. The
 574:Generated_Source\PSoC6\pdl\drivers/peripheral/scb/cy_scb_uart.h ****     * transmitter waits for CTS to be active before sending data
 575:Generated_Source\PSoC6\pdl\drivers/peripheral/scb/cy_scb_uart.h ****     */
 576:Generated_Source\PSoC6\pdl\drivers/peripheral/scb/cy_scb_uart.h ****     bool        enableCts;
 577:Generated_Source\PSoC6\pdl\drivers/peripheral/scb/cy_scb_uart.h **** 
 578:Generated_Source\PSoC6\pdl\drivers/peripheral/scb/cy_scb_uart.h ****     /** Sets the CTS Polarity */
 579:Generated_Source\PSoC6\pdl\drivers/peripheral/scb/cy_scb_uart.h ****     cy_en_scb_uart_polarity_t    ctsPolarity;
 580:Generated_Source\PSoC6\pdl\drivers/peripheral/scb/cy_scb_uart.h **** 
 581:Generated_Source\PSoC6\pdl\drivers/peripheral/scb/cy_scb_uart.h ****     /**
 582:Generated_Source\PSoC6\pdl\drivers/peripheral/scb/cy_scb_uart.h ****     * When the RX FIFO has fewer entries than rtsRxFifoLevel, the
 583:Generated_Source\PSoC6\pdl\drivers/peripheral/scb/cy_scb_uart.h ****     * RTS signal is active (note to disable RTS, set this field to zero)
 584:Generated_Source\PSoC6\pdl\drivers/peripheral/scb/cy_scb_uart.h ****     */
 585:Generated_Source\PSoC6\pdl\drivers/peripheral/scb/cy_scb_uart.h ****     uint32_t    rtsRxFifoLevel;
 586:Generated_Source\PSoC6\pdl\drivers/peripheral/scb/cy_scb_uart.h **** 
 587:Generated_Source\PSoC6\pdl\drivers/peripheral/scb/cy_scb_uart.h ****     /** Sets the RTS Polarity */
 588:Generated_Source\PSoC6\pdl\drivers/peripheral/scb/cy_scb_uart.h ****     cy_en_scb_uart_polarity_t    rtsPolarity;
 589:Generated_Source\PSoC6\pdl\drivers/peripheral/scb/cy_scb_uart.h **** 
 590:Generated_Source\PSoC6\pdl\drivers/peripheral/scb/cy_scb_uart.h ****     /** Specifies the number of bits to detect a break condition */
 591:Generated_Source\PSoC6\pdl\drivers/peripheral/scb/cy_scb_uart.h ****     uint32_t    breakWidth;
 592:Generated_Source\PSoC6\pdl\drivers/peripheral/scb/cy_scb_uart.h **** 
 593:Generated_Source\PSoC6\pdl\drivers/peripheral/scb/cy_scb_uart.h ****     /**
 594:Generated_Source\PSoC6\pdl\drivers/peripheral/scb/cy_scb_uart.h ****     * When there are more entries in the RX FIFO than this level
 595:Generated_Source\PSoC6\pdl\drivers/peripheral/scb/cy_scb_uart.h ****     * the RX trigger output goes high. This output can be connected
 596:Generated_Source\PSoC6\pdl\drivers/peripheral/scb/cy_scb_uart.h ****     * to a DMA channel through a trigger mux.
 597:Generated_Source\PSoC6\pdl\drivers/peripheral/scb/cy_scb_uart.h ****     * Also, it controls the \ref CY_SCB_UART_RX_TRIGGER interrupt source.
 598:Generated_Source\PSoC6\pdl\drivers/peripheral/scb/cy_scb_uart.h ****     */
 599:Generated_Source\PSoC6\pdl\drivers/peripheral/scb/cy_scb_uart.h ****     uint32_t    rxFifoTriggerLevel;
 600:Generated_Source\PSoC6\pdl\drivers/peripheral/scb/cy_scb_uart.h **** 
 601:Generated_Source\PSoC6\pdl\drivers/peripheral/scb/cy_scb_uart.h ****     /**
 602:Generated_Source\PSoC6\pdl\drivers/peripheral/scb/cy_scb_uart.h ****     * The bits set in this mask allow the event to cause an interrupt
 603:Generated_Source\PSoC6\pdl\drivers/peripheral/scb/cy_scb_uart.h ****     * (See \ref group_scb_uart_macros_rx_fifo_status for the set of constants)
 604:Generated_Source\PSoC6\pdl\drivers/peripheral/scb/cy_scb_uart.h ****     */
 605:Generated_Source\PSoC6\pdl\drivers/peripheral/scb/cy_scb_uart.h ****     uint32_t    rxFifoIntEnableMask;
 606:Generated_Source\PSoC6\pdl\drivers/peripheral/scb/cy_scb_uart.h **** 
 607:Generated_Source\PSoC6\pdl\drivers/peripheral/scb/cy_scb_uart.h ****     /**
 608:Generated_Source\PSoC6\pdl\drivers/peripheral/scb/cy_scb_uart.h ****     * When there are fewer entries in the TX FIFO then this level
 609:Generated_Source\PSoC6\pdl\drivers/peripheral/scb/cy_scb_uart.h ****     * the TX trigger output goes high. This output can be connected
 610:Generated_Source\PSoC6\pdl\drivers/peripheral/scb/cy_scb_uart.h ****     * to a DMA channel through a trigger mux.
 611:Generated_Source\PSoC6\pdl\drivers/peripheral/scb/cy_scb_uart.h ****     * Also, it controls \ref CY_SCB_UART_TX_TRIGGER interrupt source.
 612:Generated_Source\PSoC6\pdl\drivers/peripheral/scb/cy_scb_uart.h ****     */
 613:Generated_Source\PSoC6\pdl\drivers/peripheral/scb/cy_scb_uart.h ****     uint32_t    txFifoTriggerLevel;
 614:Generated_Source\PSoC6\pdl\drivers/peripheral/scb/cy_scb_uart.h **** 
 615:Generated_Source\PSoC6\pdl\drivers/peripheral/scb/cy_scb_uart.h ****     /**
 616:Generated_Source\PSoC6\pdl\drivers/peripheral/scb/cy_scb_uart.h ****     * Bits set in this mask allows the event to cause an interrupt
 617:Generated_Source\PSoC6\pdl\drivers/peripheral/scb/cy_scb_uart.h ****     * (See \ref group_scb_uart_macros_tx_fifo_status for the set of constants)
 618:Generated_Source\PSoC6\pdl\drivers/peripheral/scb/cy_scb_uart.h ****     */
 619:Generated_Source\PSoC6\pdl\drivers/peripheral/scb/cy_scb_uart.h ****     uint32_t    txFifoIntEnableMask;
 620:Generated_Source\PSoC6\pdl\drivers/peripheral/scb/cy_scb_uart.h **** } cy_stc_scb_uart_config_t;
 621:Generated_Source\PSoC6\pdl\drivers/peripheral/scb/cy_scb_uart.h **** 
 622:Generated_Source\PSoC6\pdl\drivers/peripheral/scb/cy_scb_uart.h **** /** UART context structure.
 623:Generated_Source\PSoC6\pdl\drivers/peripheral/scb/cy_scb_uart.h **** * All fields for the context structure are internal. Firmware never reads or
 624:Generated_Source\PSoC6\pdl\drivers/peripheral/scb/cy_scb_uart.h **** * writes these values. Firmware allocates the structure and provides the
 625:Generated_Source\PSoC6\pdl\drivers/peripheral/scb/cy_scb_uart.h **** * address of the structure to the driver in function calls. Firmware must
 626:Generated_Source\PSoC6\pdl\drivers/peripheral/scb/cy_scb_uart.h **** * ensure that the defined instance of this structure remains in scope
 627:Generated_Source\PSoC6\pdl\drivers/peripheral/scb/cy_scb_uart.h **** * while the drive is in use.
 628:Generated_Source\PSoC6\pdl\drivers/peripheral/scb/cy_scb_uart.h **** */
ARM GAS  C:\Users\fatim\AppData\Local\Temp\ccJComZj.s 			page 14


 629:Generated_Source\PSoC6\pdl\drivers/peripheral/scb/cy_scb_uart.h **** typedef struct cy_stc_scb_uart_context
 630:Generated_Source\PSoC6\pdl\drivers/peripheral/scb/cy_scb_uart.h **** {
 631:Generated_Source\PSoC6\pdl\drivers/peripheral/scb/cy_scb_uart.h ****     /** \cond INTERNAL */
 632:Generated_Source\PSoC6\pdl\drivers/peripheral/scb/cy_scb_uart.h ****     uint32_t volatile txStatus;         /**< The transmit status */
 633:Generated_Source\PSoC6\pdl\drivers/peripheral/scb/cy_scb_uart.h ****     uint32_t volatile rxStatus;         /**< The receive status */
 634:Generated_Source\PSoC6\pdl\drivers/peripheral/scb/cy_scb_uart.h **** 
 635:Generated_Source\PSoC6\pdl\drivers/peripheral/scb/cy_scb_uart.h ****     void     *rxRingBuf;                /**< The pointer to the ring buffer */
 636:Generated_Source\PSoC6\pdl\drivers/peripheral/scb/cy_scb_uart.h ****     uint32_t  rxRingBufSize;            /**< The ring buffer size */
 637:Generated_Source\PSoC6\pdl\drivers/peripheral/scb/cy_scb_uart.h ****     uint32_t volatile rxRingBufHead;    /**< The ring buffer head index */
 638:Generated_Source\PSoC6\pdl\drivers/peripheral/scb/cy_scb_uart.h ****     uint32_t volatile rxRingBufTail;    /**< The ring buffer tail index */
 639:Generated_Source\PSoC6\pdl\drivers/peripheral/scb/cy_scb_uart.h **** 
 640:Generated_Source\PSoC6\pdl\drivers/peripheral/scb/cy_scb_uart.h ****     void     *rxBuf;                    /**< The pointer to the receive buffer */
 641:Generated_Source\PSoC6\pdl\drivers/peripheral/scb/cy_scb_uart.h ****     uint32_t  rxBufSize;                /**< The receive buffer size */
 642:Generated_Source\PSoC6\pdl\drivers/peripheral/scb/cy_scb_uart.h ****     uint32_t volatile rxBufIdx;         /**< The current location in the receive buffer */
 643:Generated_Source\PSoC6\pdl\drivers/peripheral/scb/cy_scb_uart.h **** 
 644:Generated_Source\PSoC6\pdl\drivers/peripheral/scb/cy_scb_uart.h ****     void     *txBuf;                    /**< The pointer to the transmit buffer */
 645:Generated_Source\PSoC6\pdl\drivers/peripheral/scb/cy_scb_uart.h ****     uint32_t  txBufSize;                /**< The transmit buffer size */
 646:Generated_Source\PSoC6\pdl\drivers/peripheral/scb/cy_scb_uart.h ****     uint32_t volatile txLeftToTransmit; /**< The number of data elements left to be transmitted */
 647:Generated_Source\PSoC6\pdl\drivers/peripheral/scb/cy_scb_uart.h **** 
 648:Generated_Source\PSoC6\pdl\drivers/peripheral/scb/cy_scb_uart.h ****     /** The pointer to an event callback that is called when any of
 649:Generated_Source\PSoC6\pdl\drivers/peripheral/scb/cy_scb_uart.h ****     * \ref group_scb_uart_macros_callback_events occurs
 650:Generated_Source\PSoC6\pdl\drivers/peripheral/scb/cy_scb_uart.h ****     */
 651:Generated_Source\PSoC6\pdl\drivers/peripheral/scb/cy_scb_uart.h ****     cy_cb_scb_uart_handle_events_t cbEvents;
 652:Generated_Source\PSoC6\pdl\drivers/peripheral/scb/cy_scb_uart.h **** 
 653:Generated_Source\PSoC6\pdl\drivers/peripheral/scb/cy_scb_uart.h **** #if !defined(NDEBUG)
 654:Generated_Source\PSoC6\pdl\drivers/peripheral/scb/cy_scb_uart.h ****     uint32_t initKey;               /**< Tracks the context initialization */
 655:Generated_Source\PSoC6\pdl\drivers/peripheral/scb/cy_scb_uart.h **** #endif /* !(NDEBUG) */
 656:Generated_Source\PSoC6\pdl\drivers/peripheral/scb/cy_scb_uart.h ****     /** \endcond */
 657:Generated_Source\PSoC6\pdl\drivers/peripheral/scb/cy_scb_uart.h **** } cy_stc_scb_uart_context_t;
 658:Generated_Source\PSoC6\pdl\drivers/peripheral/scb/cy_scb_uart.h **** /** \} group_scb_uart_data_structures */
 659:Generated_Source\PSoC6\pdl\drivers/peripheral/scb/cy_scb_uart.h **** 
 660:Generated_Source\PSoC6\pdl\drivers/peripheral/scb/cy_scb_uart.h **** 
 661:Generated_Source\PSoC6\pdl\drivers/peripheral/scb/cy_scb_uart.h **** /*******************************************************************************
 662:Generated_Source\PSoC6\pdl\drivers/peripheral/scb/cy_scb_uart.h **** *                           Function Prototypes
 663:Generated_Source\PSoC6\pdl\drivers/peripheral/scb/cy_scb_uart.h **** *******************************************************************************/
 664:Generated_Source\PSoC6\pdl\drivers/peripheral/scb/cy_scb_uart.h **** 
 665:Generated_Source\PSoC6\pdl\drivers/peripheral/scb/cy_scb_uart.h **** /**
 666:Generated_Source\PSoC6\pdl\drivers/peripheral/scb/cy_scb_uart.h **** * \addtogroup group_scb_uart_general_functions
 667:Generated_Source\PSoC6\pdl\drivers/peripheral/scb/cy_scb_uart.h **** * \{
 668:Generated_Source\PSoC6\pdl\drivers/peripheral/scb/cy_scb_uart.h **** */
 669:Generated_Source\PSoC6\pdl\drivers/peripheral/scb/cy_scb_uart.h **** cy_en_scb_uart_status_t Cy_SCB_UART_Init(CySCB_Type *base, cy_stc_scb_uart_config_t const *config,
 670:Generated_Source\PSoC6\pdl\drivers/peripheral/scb/cy_scb_uart.h ****                                          cy_stc_scb_uart_context_t *context);
 671:Generated_Source\PSoC6\pdl\drivers/peripheral/scb/cy_scb_uart.h **** void Cy_SCB_UART_DeInit (CySCB_Type *base);
 672:Generated_Source\PSoC6\pdl\drivers/peripheral/scb/cy_scb_uart.h **** __STATIC_INLINE void Cy_SCB_UART_Enable(CySCB_Type *base);
 673:Generated_Source\PSoC6\pdl\drivers/peripheral/scb/cy_scb_uart.h **** void Cy_SCB_UART_Disable(CySCB_Type *base, cy_stc_scb_uart_context_t *context);
 674:Generated_Source\PSoC6\pdl\drivers/peripheral/scb/cy_scb_uart.h **** 
 675:Generated_Source\PSoC6\pdl\drivers/peripheral/scb/cy_scb_uart.h **** __STATIC_INLINE void     Cy_SCB_UART_EnableCts      (CySCB_Type *base);
 676:Generated_Source\PSoC6\pdl\drivers/peripheral/scb/cy_scb_uart.h **** __STATIC_INLINE void     Cy_SCB_UART_DisableCts     (CySCB_Type *base);
 677:Generated_Source\PSoC6\pdl\drivers/peripheral/scb/cy_scb_uart.h **** __STATIC_INLINE void     Cy_SCB_UART_SetRtsFifoLevel(CySCB_Type *base, uint32_t level);
 678:Generated_Source\PSoC6\pdl\drivers/peripheral/scb/cy_scb_uart.h **** __STATIC_INLINE uint32_t Cy_SCB_UART_GetRtsFifoLevel(CySCB_Type const *base);
 679:Generated_Source\PSoC6\pdl\drivers/peripheral/scb/cy_scb_uart.h **** 
 680:Generated_Source\PSoC6\pdl\drivers/peripheral/scb/cy_scb_uart.h **** __STATIC_INLINE void Cy_SCB_UART_EnableSkipStart (CySCB_Type *base);
 681:Generated_Source\PSoC6\pdl\drivers/peripheral/scb/cy_scb_uart.h **** __STATIC_INLINE void Cy_SCB_UART_DisableSkipStart(CySCB_Type *base);
 682:Generated_Source\PSoC6\pdl\drivers/peripheral/scb/cy_scb_uart.h **** /** \} group_scb_uart_general_functions */
 683:Generated_Source\PSoC6\pdl\drivers/peripheral/scb/cy_scb_uart.h **** 
 684:Generated_Source\PSoC6\pdl\drivers/peripheral/scb/cy_scb_uart.h **** /**
 685:Generated_Source\PSoC6\pdl\drivers/peripheral/scb/cy_scb_uart.h **** * \addtogroup group_scb_uart_high_level_functions
ARM GAS  C:\Users\fatim\AppData\Local\Temp\ccJComZj.s 			page 15


 686:Generated_Source\PSoC6\pdl\drivers/peripheral/scb/cy_scb_uart.h **** * \{
 687:Generated_Source\PSoC6\pdl\drivers/peripheral/scb/cy_scb_uart.h **** */
 688:Generated_Source\PSoC6\pdl\drivers/peripheral/scb/cy_scb_uart.h **** void     Cy_SCB_UART_StartRingBuffer   (CySCB_Type *base, void *buffer, uint32_t size,
 689:Generated_Source\PSoC6\pdl\drivers/peripheral/scb/cy_scb_uart.h ****                                         cy_stc_scb_uart_context_t *context);
 690:Generated_Source\PSoC6\pdl\drivers/peripheral/scb/cy_scb_uart.h **** void     Cy_SCB_UART_StopRingBuffer    (CySCB_Type *base, cy_stc_scb_uart_context_t *context);
 691:Generated_Source\PSoC6\pdl\drivers/peripheral/scb/cy_scb_uart.h **** uint32_t Cy_SCB_UART_GetNumInRingBuffer(CySCB_Type const *base, cy_stc_scb_uart_context_t const *co
 692:Generated_Source\PSoC6\pdl\drivers/peripheral/scb/cy_scb_uart.h **** void     Cy_SCB_UART_ClearRingBuffer   (CySCB_Type const *base, cy_stc_scb_uart_context_t *context)
 693:Generated_Source\PSoC6\pdl\drivers/peripheral/scb/cy_scb_uart.h **** 
 694:Generated_Source\PSoC6\pdl\drivers/peripheral/scb/cy_scb_uart.h **** cy_en_scb_uart_status_t Cy_SCB_UART_Receive(CySCB_Type *base, void *buffer, uint32_t size,
 695:Generated_Source\PSoC6\pdl\drivers/peripheral/scb/cy_scb_uart.h ****                                             cy_stc_scb_uart_context_t *context);
 696:Generated_Source\PSoC6\pdl\drivers/peripheral/scb/cy_scb_uart.h **** void     Cy_SCB_UART_AbortReceive    (CySCB_Type *base, cy_stc_scb_uart_context_t *context);
 697:Generated_Source\PSoC6\pdl\drivers/peripheral/scb/cy_scb_uart.h **** uint32_t Cy_SCB_UART_GetReceiveStatus(CySCB_Type const *base, cy_stc_scb_uart_context_t const *cont
 698:Generated_Source\PSoC6\pdl\drivers/peripheral/scb/cy_scb_uart.h **** uint32_t Cy_SCB_UART_GetNumReceived  (CySCB_Type const *base, cy_stc_scb_uart_context_t const *cont
 699:Generated_Source\PSoC6\pdl\drivers/peripheral/scb/cy_scb_uart.h **** 
 700:Generated_Source\PSoC6\pdl\drivers/peripheral/scb/cy_scb_uart.h **** cy_en_scb_uart_status_t Cy_SCB_UART_Transmit(CySCB_Type *base, void *buffer, uint32_t size,
 701:Generated_Source\PSoC6\pdl\drivers/peripheral/scb/cy_scb_uart.h ****                                              cy_stc_scb_uart_context_t *context);
 702:Generated_Source\PSoC6\pdl\drivers/peripheral/scb/cy_scb_uart.h **** void     Cy_SCB_UART_AbortTransmit       (CySCB_Type *base, cy_stc_scb_uart_context_t *context);
 703:Generated_Source\PSoC6\pdl\drivers/peripheral/scb/cy_scb_uart.h **** uint32_t Cy_SCB_UART_GetTransmitStatus   (CySCB_Type const *base, cy_stc_scb_uart_context_t const *
 704:Generated_Source\PSoC6\pdl\drivers/peripheral/scb/cy_scb_uart.h **** uint32_t Cy_SCB_UART_GetNumLeftToTransmit(CySCB_Type const *base, cy_stc_scb_uart_context_t const *
 705:Generated_Source\PSoC6\pdl\drivers/peripheral/scb/cy_scb_uart.h **** /** \} group_scb_uart_high_level_functions */
 706:Generated_Source\PSoC6\pdl\drivers/peripheral/scb/cy_scb_uart.h **** 
 707:Generated_Source\PSoC6\pdl\drivers/peripheral/scb/cy_scb_uart.h **** /**
 708:Generated_Source\PSoC6\pdl\drivers/peripheral/scb/cy_scb_uart.h **** * \addtogroup group_scb_uart_low_level_functions
 709:Generated_Source\PSoC6\pdl\drivers/peripheral/scb/cy_scb_uart.h **** * \{
 710:Generated_Source\PSoC6\pdl\drivers/peripheral/scb/cy_scb_uart.h **** */
 711:Generated_Source\PSoC6\pdl\drivers/peripheral/scb/cy_scb_uart.h **** __STATIC_INLINE uint32_t Cy_SCB_UART_Put             (CySCB_Type *base, uint32_t data);
 712:Generated_Source\PSoC6\pdl\drivers/peripheral/scb/cy_scb_uart.h **** __STATIC_INLINE uint32_t Cy_SCB_UART_PutArray        (CySCB_Type *base, void *buffer, uint32_t size
 713:Generated_Source\PSoC6\pdl\drivers/peripheral/scb/cy_scb_uart.h **** __STATIC_INLINE void     Cy_SCB_UART_PutArrayBlocking(CySCB_Type *base, void *buffer, uint32_t size
 714:Generated_Source\PSoC6\pdl\drivers/peripheral/scb/cy_scb_uart.h **** __STATIC_INLINE void     Cy_SCB_UART_PutString       (CySCB_Type *base, char_t const string[]);
 715:Generated_Source\PSoC6\pdl\drivers/peripheral/scb/cy_scb_uart.h **** void Cy_SCB_UART_SendBreakBlocking(CySCB_Type *base, uint32_t breakWidth);
 716:Generated_Source\PSoC6\pdl\drivers/peripheral/scb/cy_scb_uart.h **** 
 717:Generated_Source\PSoC6\pdl\drivers/peripheral/scb/cy_scb_uart.h **** __STATIC_INLINE uint32_t Cy_SCB_UART_Get             (CySCB_Type const *base);
 718:Generated_Source\PSoC6\pdl\drivers/peripheral/scb/cy_scb_uart.h **** __STATIC_INLINE uint32_t Cy_SCB_UART_GetArray        (CySCB_Type const *base, void *buffer, uint32_
 719:Generated_Source\PSoC6\pdl\drivers/peripheral/scb/cy_scb_uart.h **** __STATIC_INLINE void     Cy_SCB_UART_GetArrayBlocking(CySCB_Type const *base, void *buffer, uint32_
 720:Generated_Source\PSoC6\pdl\drivers/peripheral/scb/cy_scb_uart.h **** 
 721:Generated_Source\PSoC6\pdl\drivers/peripheral/scb/cy_scb_uart.h **** __STATIC_INLINE uint32_t Cy_SCB_UART_GetTxFifoStatus  (CySCB_Type const *base);
 722:Generated_Source\PSoC6\pdl\drivers/peripheral/scb/cy_scb_uart.h **** __STATIC_INLINE void     Cy_SCB_UART_ClearTxFifoStatus(CySCB_Type *base, uint32_t clearMask);
 723:Generated_Source\PSoC6\pdl\drivers/peripheral/scb/cy_scb_uart.h **** 
 724:Generated_Source\PSoC6\pdl\drivers/peripheral/scb/cy_scb_uart.h **** __STATIC_INLINE uint32_t Cy_SCB_UART_GetRxFifoStatus  (CySCB_Type const *base);
 725:Generated_Source\PSoC6\pdl\drivers/peripheral/scb/cy_scb_uart.h **** __STATIC_INLINE void     Cy_SCB_UART_ClearRxFifoStatus(CySCB_Type *base, uint32_t clearMask);
 726:Generated_Source\PSoC6\pdl\drivers/peripheral/scb/cy_scb_uart.h **** 
 727:Generated_Source\PSoC6\pdl\drivers/peripheral/scb/cy_scb_uart.h **** __STATIC_INLINE uint32_t Cy_SCB_UART_GetNumInTxFifo   (CySCB_Type const *base);
 728:Generated_Source\PSoC6\pdl\drivers/peripheral/scb/cy_scb_uart.h **** __STATIC_INLINE bool     Cy_SCB_UART_IsTxComplete     (CySCB_Type const *base);
 729:Generated_Source\PSoC6\pdl\drivers/peripheral/scb/cy_scb_uart.h **** 
 730:Generated_Source\PSoC6\pdl\drivers/peripheral/scb/cy_scb_uart.h **** __STATIC_INLINE uint32_t Cy_SCB_UART_GetNumInRxFifo   (CySCB_Type const *base);
 731:Generated_Source\PSoC6\pdl\drivers/peripheral/scb/cy_scb_uart.h **** 
 732:Generated_Source\PSoC6\pdl\drivers/peripheral/scb/cy_scb_uart.h **** __STATIC_INLINE void     Cy_SCB_UART_ClearRxFifo      (CySCB_Type *base);
 733:Generated_Source\PSoC6\pdl\drivers/peripheral/scb/cy_scb_uart.h **** __STATIC_INLINE void     Cy_SCB_UART_ClearTxFifo      (CySCB_Type *base);
 734:Generated_Source\PSoC6\pdl\drivers/peripheral/scb/cy_scb_uart.h **** /** \} group_scb_uart_low_level_functions */
 735:Generated_Source\PSoC6\pdl\drivers/peripheral/scb/cy_scb_uart.h **** 
 736:Generated_Source\PSoC6\pdl\drivers/peripheral/scb/cy_scb_uart.h **** /**
 737:Generated_Source\PSoC6\pdl\drivers/peripheral/scb/cy_scb_uart.h **** * \addtogroup group_scb_uart_interrupt_functions
 738:Generated_Source\PSoC6\pdl\drivers/peripheral/scb/cy_scb_uart.h **** * \{
 739:Generated_Source\PSoC6\pdl\drivers/peripheral/scb/cy_scb_uart.h **** */
 740:Generated_Source\PSoC6\pdl\drivers/peripheral/scb/cy_scb_uart.h **** void Cy_SCB_UART_Interrupt(CySCB_Type *base, cy_stc_scb_uart_context_t *context);
 741:Generated_Source\PSoC6\pdl\drivers/peripheral/scb/cy_scb_uart.h **** 
 742:Generated_Source\PSoC6\pdl\drivers/peripheral/scb/cy_scb_uart.h **** __STATIC_INLINE void Cy_SCB_UART_RegisterCallback(CySCB_Type const *base, cy_cb_scb_uart_handle_eve
ARM GAS  C:\Users\fatim\AppData\Local\Temp\ccJComZj.s 			page 16


 743:Generated_Source\PSoC6\pdl\drivers/peripheral/scb/cy_scb_uart.h ****                                                   cy_stc_scb_uart_context_t *context);
 744:Generated_Source\PSoC6\pdl\drivers/peripheral/scb/cy_scb_uart.h **** /** \} group_scb_uart_interrupt_functions */
 745:Generated_Source\PSoC6\pdl\drivers/peripheral/scb/cy_scb_uart.h **** 
 746:Generated_Source\PSoC6\pdl\drivers/peripheral/scb/cy_scb_uart.h **** /**
 747:Generated_Source\PSoC6\pdl\drivers/peripheral/scb/cy_scb_uart.h **** * \addtogroup group_scb_uart_low_power_functions
 748:Generated_Source\PSoC6\pdl\drivers/peripheral/scb/cy_scb_uart.h **** * \{
 749:Generated_Source\PSoC6\pdl\drivers/peripheral/scb/cy_scb_uart.h **** */
 750:Generated_Source\PSoC6\pdl\drivers/peripheral/scb/cy_scb_uart.h **** cy_en_syspm_status_t Cy_SCB_UART_DeepSleepCallback(cy_stc_syspm_callback_params_t *callbackParams, 
 751:Generated_Source\PSoC6\pdl\drivers/peripheral/scb/cy_scb_uart.h **** cy_en_syspm_status_t Cy_SCB_UART_HibernateCallback(cy_stc_syspm_callback_params_t *callbackParams, 
 752:Generated_Source\PSoC6\pdl\drivers/peripheral/scb/cy_scb_uart.h **** /** \} group_scb_uart_low_power_functions */
 753:Generated_Source\PSoC6\pdl\drivers/peripheral/scb/cy_scb_uart.h **** 
 754:Generated_Source\PSoC6\pdl\drivers/peripheral/scb/cy_scb_uart.h **** 
 755:Generated_Source\PSoC6\pdl\drivers/peripheral/scb/cy_scb_uart.h **** /*******************************************************************************
 756:Generated_Source\PSoC6\pdl\drivers/peripheral/scb/cy_scb_uart.h **** *                               API Constants
 757:Generated_Source\PSoC6\pdl\drivers/peripheral/scb/cy_scb_uart.h **** *******************************************************************************/
 758:Generated_Source\PSoC6\pdl\drivers/peripheral/scb/cy_scb_uart.h **** 
 759:Generated_Source\PSoC6\pdl\drivers/peripheral/scb/cy_scb_uart.h **** /**
 760:Generated_Source\PSoC6\pdl\drivers/peripheral/scb/cy_scb_uart.h **** * \addtogroup group_scb_uart_macros
 761:Generated_Source\PSoC6\pdl\drivers/peripheral/scb/cy_scb_uart.h **** * \{
 762:Generated_Source\PSoC6\pdl\drivers/peripheral/scb/cy_scb_uart.h **** */
 763:Generated_Source\PSoC6\pdl\drivers/peripheral/scb/cy_scb_uart.h **** 
 764:Generated_Source\PSoC6\pdl\drivers/peripheral/scb/cy_scb_uart.h **** /**
 765:Generated_Source\PSoC6\pdl\drivers/peripheral/scb/cy_scb_uart.h **** * \defgroup group_scb_uart_macros_irda_lp_ovs UART IRDA Low Power Oversample factors
 766:Generated_Source\PSoC6\pdl\drivers/peripheral/scb/cy_scb_uart.h **** * \{
 767:Generated_Source\PSoC6\pdl\drivers/peripheral/scb/cy_scb_uart.h **** */
 768:Generated_Source\PSoC6\pdl\drivers/peripheral/scb/cy_scb_uart.h **** #define CY_SCB_UART_IRDA_LP_OVS16      (1UL)   /**< IrDA in low-power mode oversampled by 16   */
 769:Generated_Source\PSoC6\pdl\drivers/peripheral/scb/cy_scb_uart.h **** #define CY_SCB_UART_IRDA_LP_OVS32      (2UL)   /**< IrDA in low-power mode oversampled by 32   */
 770:Generated_Source\PSoC6\pdl\drivers/peripheral/scb/cy_scb_uart.h **** #define CY_SCB_UART_IRDA_LP_OVS48      (3UL)   /**< IrDA in low-power mode oversampled by 48   */
 771:Generated_Source\PSoC6\pdl\drivers/peripheral/scb/cy_scb_uart.h **** #define CY_SCB_UART_IRDA_LP_OVS96      (4UL)   /**< IrDA in low-power mode oversampled by 96   */
 772:Generated_Source\PSoC6\pdl\drivers/peripheral/scb/cy_scb_uart.h **** #define CY_SCB_UART_IRDA_LP_OVS192     (5UL)   /**< IrDA in low-power mode oversampled by 192  */
 773:Generated_Source\PSoC6\pdl\drivers/peripheral/scb/cy_scb_uart.h **** #define CY_SCB_UART_IRDA_LP_OVS768     (6UL)   /**< IrDA in low-power mode oversampled by 768  */
 774:Generated_Source\PSoC6\pdl\drivers/peripheral/scb/cy_scb_uart.h **** #define CY_SCB_UART_IRDA_LP_OVS1536    (7UL)   /**< IrDA in low-power mode oversampled by 1536 */
 775:Generated_Source\PSoC6\pdl\drivers/peripheral/scb/cy_scb_uart.h **** /** \} group_scb_uart_macros_irda_lp_ovs */
 776:Generated_Source\PSoC6\pdl\drivers/peripheral/scb/cy_scb_uart.h **** 
 777:Generated_Source\PSoC6\pdl\drivers/peripheral/scb/cy_scb_uart.h **** /**
 778:Generated_Source\PSoC6\pdl\drivers/peripheral/scb/cy_scb_uart.h **** * \defgroup group_scb_uart_macros_rx_fifo_status UART RX FIFO status.
 779:Generated_Source\PSoC6\pdl\drivers/peripheral/scb/cy_scb_uart.h **** * \{
 780:Generated_Source\PSoC6\pdl\drivers/peripheral/scb/cy_scb_uart.h **** * Macros to check UART RX FIFO status returned by \ref Cy_SCB_UART_GetRxFifoStatus
 781:Generated_Source\PSoC6\pdl\drivers/peripheral/scb/cy_scb_uart.h **** * function or assign mask for \ref Cy_SCB_UART_ClearRxFifoStatus function.
 782:Generated_Source\PSoC6\pdl\drivers/peripheral/scb/cy_scb_uart.h **** * Each UART RX FIFO status is encoded in a separate bit, therefore multiple
 783:Generated_Source\PSoC6\pdl\drivers/peripheral/scb/cy_scb_uart.h **** * bits may be set to indicate the current status.
 784:Generated_Source\PSoC6\pdl\drivers/peripheral/scb/cy_scb_uart.h **** */
 785:Generated_Source\PSoC6\pdl\drivers/peripheral/scb/cy_scb_uart.h **** 
 786:Generated_Source\PSoC6\pdl\drivers/peripheral/scb/cy_scb_uart.h **** /** The number of entries in the RX FIFO is more than the RX FIFO trigger level
 787:Generated_Source\PSoC6\pdl\drivers/peripheral/scb/cy_scb_uart.h **** * value
 788:Generated_Source\PSoC6\pdl\drivers/peripheral/scb/cy_scb_uart.h **** */
 789:Generated_Source\PSoC6\pdl\drivers/peripheral/scb/cy_scb_uart.h **** #define CY_SCB_UART_RX_TRIGGER         (SCB_INTR_RX_TRIGGER_Msk)
 790:Generated_Source\PSoC6\pdl\drivers/peripheral/scb/cy_scb_uart.h **** 
 791:Generated_Source\PSoC6\pdl\drivers/peripheral/scb/cy_scb_uart.h **** /** The RX FIFO is not empty, there is data to read */
 792:Generated_Source\PSoC6\pdl\drivers/peripheral/scb/cy_scb_uart.h **** #define CY_SCB_UART_RX_NOT_EMPTY       (SCB_INTR_RX_NOT_EMPTY_Msk)
 793:Generated_Source\PSoC6\pdl\drivers/peripheral/scb/cy_scb_uart.h **** 
 794:Generated_Source\PSoC6\pdl\drivers/peripheral/scb/cy_scb_uart.h **** /**
 795:Generated_Source\PSoC6\pdl\drivers/peripheral/scb/cy_scb_uart.h **** * The RX FIFO is full, there is no more space for additional data, and
 796:Generated_Source\PSoC6\pdl\drivers/peripheral/scb/cy_scb_uart.h **** * any additional data will be dropped
 797:Generated_Source\PSoC6\pdl\drivers/peripheral/scb/cy_scb_uart.h **** */
 798:Generated_Source\PSoC6\pdl\drivers/peripheral/scb/cy_scb_uart.h **** #define CY_SCB_UART_RX_FULL            (SCB_INTR_RX_FULL_Msk)
 799:Generated_Source\PSoC6\pdl\drivers/peripheral/scb/cy_scb_uart.h **** 
ARM GAS  C:\Users\fatim\AppData\Local\Temp\ccJComZj.s 			page 17


 800:Generated_Source\PSoC6\pdl\drivers/peripheral/scb/cy_scb_uart.h **** /**
 801:Generated_Source\PSoC6\pdl\drivers/peripheral/scb/cy_scb_uart.h **** * The RX FIFO was full and there was an attempt to write to it.
 802:Generated_Source\PSoC6\pdl\drivers/peripheral/scb/cy_scb_uart.h **** * That additional data was dropped.
 803:Generated_Source\PSoC6\pdl\drivers/peripheral/scb/cy_scb_uart.h **** */
 804:Generated_Source\PSoC6\pdl\drivers/peripheral/scb/cy_scb_uart.h **** #define CY_SCB_UART_RX_OVERFLOW        (SCB_INTR_RX_OVERFLOW_Msk)
 805:Generated_Source\PSoC6\pdl\drivers/peripheral/scb/cy_scb_uart.h **** 
 806:Generated_Source\PSoC6\pdl\drivers/peripheral/scb/cy_scb_uart.h **** /** An attempt to read from an empty RX FIFO */
 807:Generated_Source\PSoC6\pdl\drivers/peripheral/scb/cy_scb_uart.h **** #define CY_SCB_UART_RX_UNDERFLOW       (SCB_INTR_RX_UNDERFLOW_Msk)
 808:Generated_Source\PSoC6\pdl\drivers/peripheral/scb/cy_scb_uart.h **** 
 809:Generated_Source\PSoC6\pdl\drivers/peripheral/scb/cy_scb_uart.h **** /** The RX FIFO detected a frame error, either a stop or stop-bit error */
 810:Generated_Source\PSoC6\pdl\drivers/peripheral/scb/cy_scb_uart.h **** #define CY_SCB_UART_RX_ERR_FRAME       (SCB_INTR_RX_FRAME_ERROR_Msk)
 811:Generated_Source\PSoC6\pdl\drivers/peripheral/scb/cy_scb_uart.h **** 
 812:Generated_Source\PSoC6\pdl\drivers/peripheral/scb/cy_scb_uart.h **** /** The RX FIFO detected a parity error */
 813:Generated_Source\PSoC6\pdl\drivers/peripheral/scb/cy_scb_uart.h **** #define CY_SCB_UART_RX_ERR_PARITY      (SCB_INTR_RX_PARITY_ERROR_Msk)
 814:Generated_Source\PSoC6\pdl\drivers/peripheral/scb/cy_scb_uart.h **** 
 815:Generated_Source\PSoC6\pdl\drivers/peripheral/scb/cy_scb_uart.h **** /** The RX FIFO detected a break transmission from the transmitter */
 816:Generated_Source\PSoC6\pdl\drivers/peripheral/scb/cy_scb_uart.h **** #define CY_SCB_UART_RX_BREAK_DETECT    (SCB_INTR_RX_BREAK_DETECT_Msk)
 817:Generated_Source\PSoC6\pdl\drivers/peripheral/scb/cy_scb_uart.h **** /** \} group_scb_uart_macros_rx_fifo_status */
 818:Generated_Source\PSoC6\pdl\drivers/peripheral/scb/cy_scb_uart.h **** 
 819:Generated_Source\PSoC6\pdl\drivers/peripheral/scb/cy_scb_uart.h **** /**
 820:Generated_Source\PSoC6\pdl\drivers/peripheral/scb/cy_scb_uart.h **** * \defgroup group_scb_uart_macros_tx_fifo_status UART TX FIFO Statuses
 821:Generated_Source\PSoC6\pdl\drivers/peripheral/scb/cy_scb_uart.h **** * \{
 822:Generated_Source\PSoC6\pdl\drivers/peripheral/scb/cy_scb_uart.h **** * Macros to check UART TX FIFO status returned by \ref Cy_SCB_UART_GetTxFifoStatus
 823:Generated_Source\PSoC6\pdl\drivers/peripheral/scb/cy_scb_uart.h **** * function or assign mask for \ref Cy_SCB_UART_ClearTxFifoStatus function.
 824:Generated_Source\PSoC6\pdl\drivers/peripheral/scb/cy_scb_uart.h **** * Each UART TX FIFO status is encoded in a separate bit, therefore multiple bits
 825:Generated_Source\PSoC6\pdl\drivers/peripheral/scb/cy_scb_uart.h **** * may be set to indicate the current status.
 826:Generated_Source\PSoC6\pdl\drivers/peripheral/scb/cy_scb_uart.h **** */
 827:Generated_Source\PSoC6\pdl\drivers/peripheral/scb/cy_scb_uart.h **** 
 828:Generated_Source\PSoC6\pdl\drivers/peripheral/scb/cy_scb_uart.h **** /** The number of entries in the TX FIFO is less than the TX FIFO trigger level
 829:Generated_Source\PSoC6\pdl\drivers/peripheral/scb/cy_scb_uart.h **** * value
 830:Generated_Source\PSoC6\pdl\drivers/peripheral/scb/cy_scb_uart.h **** */
 831:Generated_Source\PSoC6\pdl\drivers/peripheral/scb/cy_scb_uart.h **** #define CY_SCB_UART_TX_TRIGGER     (SCB_INTR_TX_TRIGGER_Msk)
 832:Generated_Source\PSoC6\pdl\drivers/peripheral/scb/cy_scb_uart.h **** 
 833:Generated_Source\PSoC6\pdl\drivers/peripheral/scb/cy_scb_uart.h **** /** The TX FIFO is not full, there is a space for more data */
 834:Generated_Source\PSoC6\pdl\drivers/peripheral/scb/cy_scb_uart.h **** #define CY_SCB_UART_TX_NOT_FULL    (SCB_INTR_TX_NOT_FULL_Msk)
 835:Generated_Source\PSoC6\pdl\drivers/peripheral/scb/cy_scb_uart.h **** 
 836:Generated_Source\PSoC6\pdl\drivers/peripheral/scb/cy_scb_uart.h **** /** The TX FIFO is empty, note there may still be data in the shift register.*/
 837:Generated_Source\PSoC6\pdl\drivers/peripheral/scb/cy_scb_uart.h **** #define CY_SCB_UART_TX_EMPTY       (SCB_INTR_TX_EMPTY_Msk)
 838:Generated_Source\PSoC6\pdl\drivers/peripheral/scb/cy_scb_uart.h **** 
 839:Generated_Source\PSoC6\pdl\drivers/peripheral/scb/cy_scb_uart.h **** /** An attempt to write to the full TX FIFO */
 840:Generated_Source\PSoC6\pdl\drivers/peripheral/scb/cy_scb_uart.h **** #define CY_SCB_UART_TX_OVERFLOW    (SCB_INTR_TX_OVERFLOW_Msk)
 841:Generated_Source\PSoC6\pdl\drivers/peripheral/scb/cy_scb_uart.h **** 
 842:Generated_Source\PSoC6\pdl\drivers/peripheral/scb/cy_scb_uart.h **** /** An attempt to read from an empty transmitter FIFO (hardware reads). */
 843:Generated_Source\PSoC6\pdl\drivers/peripheral/scb/cy_scb_uart.h **** #define CY_SCB_UART_TX_UNDERFLOW (SCB_INTR_TX_UNDERFLOW_Msk)
 844:Generated_Source\PSoC6\pdl\drivers/peripheral/scb/cy_scb_uart.h **** 
 845:Generated_Source\PSoC6\pdl\drivers/peripheral/scb/cy_scb_uart.h **** /** All data has been transmitted out of the FIFO, including shifter */
 846:Generated_Source\PSoC6\pdl\drivers/peripheral/scb/cy_scb_uart.h **** #define CY_SCB_UART_TX_DONE        (SCB_INTR_TX_UART_DONE_Msk)
 847:Generated_Source\PSoC6\pdl\drivers/peripheral/scb/cy_scb_uart.h **** 
 848:Generated_Source\PSoC6\pdl\drivers/peripheral/scb/cy_scb_uart.h **** /** SmartCard only: the transmitter received a NACK */
 849:Generated_Source\PSoC6\pdl\drivers/peripheral/scb/cy_scb_uart.h **** #define CY_SCB_UART_TX_NACK        (SCB_INTR_TX_UART_NACK_Msk)
 850:Generated_Source\PSoC6\pdl\drivers/peripheral/scb/cy_scb_uart.h **** 
 851:Generated_Source\PSoC6\pdl\drivers/peripheral/scb/cy_scb_uart.h **** /** SmartCard only: the transmitter lost arbitration */
 852:Generated_Source\PSoC6\pdl\drivers/peripheral/scb/cy_scb_uart.h **** #define CY_SCB_UART_TX_ARB_LOST    (SCB_INTR_TX_UART_ARB_LOST_Msk)
 853:Generated_Source\PSoC6\pdl\drivers/peripheral/scb/cy_scb_uart.h **** /** \} group_scb_uart_macros_tx_fifo_status */
 854:Generated_Source\PSoC6\pdl\drivers/peripheral/scb/cy_scb_uart.h **** 
 855:Generated_Source\PSoC6\pdl\drivers/peripheral/scb/cy_scb_uart.h **** /**
 856:Generated_Source\PSoC6\pdl\drivers/peripheral/scb/cy_scb_uart.h **** * \defgroup group_scb_uart_macros_receive_status UART Receive Statuses
ARM GAS  C:\Users\fatim\AppData\Local\Temp\ccJComZj.s 			page 18


 857:Generated_Source\PSoC6\pdl\drivers/peripheral/scb/cy_scb_uart.h **** * \{
 858:Generated_Source\PSoC6\pdl\drivers/peripheral/scb/cy_scb_uart.h **** * Macros to check current UART receive status returned by 
 859:Generated_Source\PSoC6\pdl\drivers/peripheral/scb/cy_scb_uart.h **** * \ref Cy_SCB_UART_GetReceiveStatus function. 
 860:Generated_Source\PSoC6\pdl\drivers/peripheral/scb/cy_scb_uart.h **** * Each UART receive status is encoded in a separate bit, therefore multiple bits
 861:Generated_Source\PSoC6\pdl\drivers/peripheral/scb/cy_scb_uart.h **** * may be set to indicate the current status.
 862:Generated_Source\PSoC6\pdl\drivers/peripheral/scb/cy_scb_uart.h **** */
 863:Generated_Source\PSoC6\pdl\drivers/peripheral/scb/cy_scb_uart.h **** /** The receive operation started by \ref Cy_SCB_UART_Receive is in progress */
 864:Generated_Source\PSoC6\pdl\drivers/peripheral/scb/cy_scb_uart.h **** #define CY_SCB_UART_RECEIVE_ACTIVE         (0x01UL)
 865:Generated_Source\PSoC6\pdl\drivers/peripheral/scb/cy_scb_uart.h **** 
 866:Generated_Source\PSoC6\pdl\drivers/peripheral/scb/cy_scb_uart.h **** /**
 867:Generated_Source\PSoC6\pdl\drivers/peripheral/scb/cy_scb_uart.h **** * The hardware RX FIFO was full and there was an attempt to write to it.
 868:Generated_Source\PSoC6\pdl\drivers/peripheral/scb/cy_scb_uart.h **** * That additional data was dropped.
 869:Generated_Source\PSoC6\pdl\drivers/peripheral/scb/cy_scb_uart.h **** */
 870:Generated_Source\PSoC6\pdl\drivers/peripheral/scb/cy_scb_uart.h **** #define CY_SCB_UART_RECEIVE_OVERFLOW       (SCB_INTR_RX_OVERFLOW_Msk)
 871:Generated_Source\PSoC6\pdl\drivers/peripheral/scb/cy_scb_uart.h **** 
 872:Generated_Source\PSoC6\pdl\drivers/peripheral/scb/cy_scb_uart.h **** /** The receive hardware detected a frame error, either a start or
 873:Generated_Source\PSoC6\pdl\drivers/peripheral/scb/cy_scb_uart.h **** * stop bit error
 874:Generated_Source\PSoC6\pdl\drivers/peripheral/scb/cy_scb_uart.h **** */
 875:Generated_Source\PSoC6\pdl\drivers/peripheral/scb/cy_scb_uart.h **** #define CY_SCB_UART_RECEIVE_ERR_FRAME      (SCB_INTR_RX_FRAME_ERROR_Msk)
 876:Generated_Source\PSoC6\pdl\drivers/peripheral/scb/cy_scb_uart.h **** 
 877:Generated_Source\PSoC6\pdl\drivers/peripheral/scb/cy_scb_uart.h **** /** The receive hardware detected a parity error */
 878:Generated_Source\PSoC6\pdl\drivers/peripheral/scb/cy_scb_uart.h **** #define CY_SCB_UART_RECEIVE_ERR_PARITY     (SCB_INTR_RX_PARITY_ERROR_Msk)
 879:Generated_Source\PSoC6\pdl\drivers/peripheral/scb/cy_scb_uart.h **** 
 880:Generated_Source\PSoC6\pdl\drivers/peripheral/scb/cy_scb_uart.h **** /** The receive hardware detected a break transmission from transmitter */
 881:Generated_Source\PSoC6\pdl\drivers/peripheral/scb/cy_scb_uart.h **** #define CY_SCB_UART_RECEIVE_BREAK_DETECT   (SCB_INTR_RX_BREAK_DETECT_Msk)
 882:Generated_Source\PSoC6\pdl\drivers/peripheral/scb/cy_scb_uart.h **** /** \} group_scb_uart_macros_receive_status */
 883:Generated_Source\PSoC6\pdl\drivers/peripheral/scb/cy_scb_uart.h **** 
 884:Generated_Source\PSoC6\pdl\drivers/peripheral/scb/cy_scb_uart.h **** /**
 885:Generated_Source\PSoC6\pdl\drivers/peripheral/scb/cy_scb_uart.h **** * \defgroup group_scb_uart_macros_transmit_status UART Transmit Status
 886:Generated_Source\PSoC6\pdl\drivers/peripheral/scb/cy_scb_uart.h **** * \{
 887:Generated_Source\PSoC6\pdl\drivers/peripheral/scb/cy_scb_uart.h **** * Macros to check current UART transmit status returned by 
 888:Generated_Source\PSoC6\pdl\drivers/peripheral/scb/cy_scb_uart.h **** * \ref Cy_SCB_UART_GetTransmitStatus function. 
 889:Generated_Source\PSoC6\pdl\drivers/peripheral/scb/cy_scb_uart.h **** * Each UART transmit status is encoded in a separate bit, therefore multiple bits
 890:Generated_Source\PSoC6\pdl\drivers/peripheral/scb/cy_scb_uart.h **** * may be set to indicate the current status.
 891:Generated_Source\PSoC6\pdl\drivers/peripheral/scb/cy_scb_uart.h **** */
 892:Generated_Source\PSoC6\pdl\drivers/peripheral/scb/cy_scb_uart.h **** 
 893:Generated_Source\PSoC6\pdl\drivers/peripheral/scb/cy_scb_uart.h **** /** The transmit operation started by \ref Cy_SCB_UART_Transmit is in progress */
 894:Generated_Source\PSoC6\pdl\drivers/peripheral/scb/cy_scb_uart.h **** #define CY_SCB_UART_TRANSMIT_ACTIVE    (0x01UL)
 895:Generated_Source\PSoC6\pdl\drivers/peripheral/scb/cy_scb_uart.h **** 
 896:Generated_Source\PSoC6\pdl\drivers/peripheral/scb/cy_scb_uart.h **** /**
 897:Generated_Source\PSoC6\pdl\drivers/peripheral/scb/cy_scb_uart.h **** * All data elements specified by \ref Cy_SCB_UART_Transmit have been loaded
 898:Generated_Source\PSoC6\pdl\drivers/peripheral/scb/cy_scb_uart.h **** * into the TX FIFO
 899:Generated_Source\PSoC6\pdl\drivers/peripheral/scb/cy_scb_uart.h **** */
 900:Generated_Source\PSoC6\pdl\drivers/peripheral/scb/cy_scb_uart.h **** #define CY_SCB_UART_TRANSMIT_IN_FIFO   (0x02UL)
 901:Generated_Source\PSoC6\pdl\drivers/peripheral/scb/cy_scb_uart.h **** 
 902:Generated_Source\PSoC6\pdl\drivers/peripheral/scb/cy_scb_uart.h **** /** SmartCard only: the transmitter received a NACK */
 903:Generated_Source\PSoC6\pdl\drivers/peripheral/scb/cy_scb_uart.h **** #define CY_SCB_UART_TRANSMIT_NACK      (SCB_INTR_TX_UART_NACK_Msk)
 904:Generated_Source\PSoC6\pdl\drivers/peripheral/scb/cy_scb_uart.h **** 
 905:Generated_Source\PSoC6\pdl\drivers/peripheral/scb/cy_scb_uart.h **** /** SmartCard only: the transmitter lost arbitration */
 906:Generated_Source\PSoC6\pdl\drivers/peripheral/scb/cy_scb_uart.h **** #define CY_SCB_UART_TRANSMIT_ARB_LOST  (SCB_INTR_TX_UART_ARB_LOST_Msk)
 907:Generated_Source\PSoC6\pdl\drivers/peripheral/scb/cy_scb_uart.h **** /** \} group_scb_uart_macros_transmit_status */
 908:Generated_Source\PSoC6\pdl\drivers/peripheral/scb/cy_scb_uart.h **** 
 909:Generated_Source\PSoC6\pdl\drivers/peripheral/scb/cy_scb_uart.h **** /**
 910:Generated_Source\PSoC6\pdl\drivers/peripheral/scb/cy_scb_uart.h **** * \defgroup group_scb_uart_macros_callback_events UART Callback Events
 911:Generated_Source\PSoC6\pdl\drivers/peripheral/scb/cy_scb_uart.h **** * \{
 912:Generated_Source\PSoC6\pdl\drivers/peripheral/scb/cy_scb_uart.h **** * Macros to check UART events passed by \ref cy_cb_scb_uart_handle_events_t callback.
 913:Generated_Source\PSoC6\pdl\drivers/peripheral/scb/cy_scb_uart.h **** * Note that only single event is notified by the callback when it is called.
ARM GAS  C:\Users\fatim\AppData\Local\Temp\ccJComZj.s 			page 19


 914:Generated_Source\PSoC6\pdl\drivers/peripheral/scb/cy_scb_uart.h **** */
 915:Generated_Source\PSoC6\pdl\drivers/peripheral/scb/cy_scb_uart.h **** 
 916:Generated_Source\PSoC6\pdl\drivers/peripheral/scb/cy_scb_uart.h **** /**
 917:Generated_Source\PSoC6\pdl\drivers/peripheral/scb/cy_scb_uart.h **** * All data elements specified by \ref Cy_SCB_UART_Transmit have been loaded
 918:Generated_Source\PSoC6\pdl\drivers/peripheral/scb/cy_scb_uart.h **** * into the TX FIFO
 919:Generated_Source\PSoC6\pdl\drivers/peripheral/scb/cy_scb_uart.h **** */
 920:Generated_Source\PSoC6\pdl\drivers/peripheral/scb/cy_scb_uart.h **** #define CY_SCB_UART_TRANSMIT_IN_FIFO_EVENT (0x01UL)
 921:Generated_Source\PSoC6\pdl\drivers/peripheral/scb/cy_scb_uart.h **** 
 922:Generated_Source\PSoC6\pdl\drivers/peripheral/scb/cy_scb_uart.h **** /** The transmit operation started by \ref Cy_SCB_UART_Transmit is complete */
 923:Generated_Source\PSoC6\pdl\drivers/peripheral/scb/cy_scb_uart.h **** #define CY_SCB_UART_TRANSMIT_DONE_EVENT    (0x02UL)
 924:Generated_Source\PSoC6\pdl\drivers/peripheral/scb/cy_scb_uart.h **** 
 925:Generated_Source\PSoC6\pdl\drivers/peripheral/scb/cy_scb_uart.h **** /** The receive operation started by \ref Cy_SCB_UART_Receive is complete */
 926:Generated_Source\PSoC6\pdl\drivers/peripheral/scb/cy_scb_uart.h **** #define CY_SCB_UART_RECEIVE_DONE_EVENT     (0x04UL)
 927:Generated_Source\PSoC6\pdl\drivers/peripheral/scb/cy_scb_uart.h **** 
 928:Generated_Source\PSoC6\pdl\drivers/peripheral/scb/cy_scb_uart.h **** /**
 929:Generated_Source\PSoC6\pdl\drivers/peripheral/scb/cy_scb_uart.h **** * The ring buffer is full, there is no more space for additional data.
 930:Generated_Source\PSoC6\pdl\drivers/peripheral/scb/cy_scb_uart.h **** * Additional data is stored in the RX FIFO until it becomes full, at which
 931:Generated_Source\PSoC6\pdl\drivers/peripheral/scb/cy_scb_uart.h **** * point data is dropped.
 932:Generated_Source\PSoC6\pdl\drivers/peripheral/scb/cy_scb_uart.h **** */
 933:Generated_Source\PSoC6\pdl\drivers/peripheral/scb/cy_scb_uart.h **** #define CY_SCB_UART_RB_FULL_EVENT          (0x08UL)
 934:Generated_Source\PSoC6\pdl\drivers/peripheral/scb/cy_scb_uart.h **** 
 935:Generated_Source\PSoC6\pdl\drivers/peripheral/scb/cy_scb_uart.h **** /**
 936:Generated_Source\PSoC6\pdl\drivers/peripheral/scb/cy_scb_uart.h **** * An error was detected during the receive operation. This includes overflow,
 937:Generated_Source\PSoC6\pdl\drivers/peripheral/scb/cy_scb_uart.h **** * frame error, or parity error. Check \ref Cy_SCB_UART_GetReceiveStatus to
 938:Generated_Source\PSoC6\pdl\drivers/peripheral/scb/cy_scb_uart.h **** * determine the source of the error.
 939:Generated_Source\PSoC6\pdl\drivers/peripheral/scb/cy_scb_uart.h **** */
 940:Generated_Source\PSoC6\pdl\drivers/peripheral/scb/cy_scb_uart.h **** #define CY_SCB_UART_RECEIVE_ERR_EVENT      (0x10UL)
 941:Generated_Source\PSoC6\pdl\drivers/peripheral/scb/cy_scb_uart.h **** 
 942:Generated_Source\PSoC6\pdl\drivers/peripheral/scb/cy_scb_uart.h **** /**
 943:Generated_Source\PSoC6\pdl\drivers/peripheral/scb/cy_scb_uart.h **** * An error was detected during the transmit operation. This includes a NACK
 944:Generated_Source\PSoC6\pdl\drivers/peripheral/scb/cy_scb_uart.h **** * or lost arbitration. Check \ref Cy_SCB_UART_GetTransmitStatus to determine
 945:Generated_Source\PSoC6\pdl\drivers/peripheral/scb/cy_scb_uart.h **** * the source of the error
 946:Generated_Source\PSoC6\pdl\drivers/peripheral/scb/cy_scb_uart.h **** */
 947:Generated_Source\PSoC6\pdl\drivers/peripheral/scb/cy_scb_uart.h **** #define CY_SCB_UART_TRANSMIT_ERR_EVENT     (0x20UL)
 948:Generated_Source\PSoC6\pdl\drivers/peripheral/scb/cy_scb_uart.h **** /** \} group_scb_uart_macros_callback_events */
 949:Generated_Source\PSoC6\pdl\drivers/peripheral/scb/cy_scb_uart.h **** 
 950:Generated_Source\PSoC6\pdl\drivers/peripheral/scb/cy_scb_uart.h **** /** Data returned by the hardware when an empty RX FIFO is read */
 951:Generated_Source\PSoC6\pdl\drivers/peripheral/scb/cy_scb_uart.h **** #define CY_SCB_UART_RX_NO_DATA         (0xFFFFFFFFUL)
 952:Generated_Source\PSoC6\pdl\drivers/peripheral/scb/cy_scb_uart.h **** 
 953:Generated_Source\PSoC6\pdl\drivers/peripheral/scb/cy_scb_uart.h **** 
 954:Generated_Source\PSoC6\pdl\drivers/peripheral/scb/cy_scb_uart.h **** /*******************************************************************************
 955:Generated_Source\PSoC6\pdl\drivers/peripheral/scb/cy_scb_uart.h **** *                            Internal Constants
 956:Generated_Source\PSoC6\pdl\drivers/peripheral/scb/cy_scb_uart.h **** *******************************************************************************/
 957:Generated_Source\PSoC6\pdl\drivers/peripheral/scb/cy_scb_uart.h **** 
 958:Generated_Source\PSoC6\pdl\drivers/peripheral/scb/cy_scb_uart.h **** /** \cond INTERNAL */
 959:Generated_Source\PSoC6\pdl\drivers/peripheral/scb/cy_scb_uart.h **** #define CY_SCB_UART_TX_INTR_MASK    (CY_SCB_UART_TX_TRIGGER  | CY_SCB_UART_TX_NOT_FULL  | CY_SCB_UA
 960:Generated_Source\PSoC6\pdl\drivers/peripheral/scb/cy_scb_uart.h ****                                      CY_SCB_UART_TX_OVERFLOW | CY_SCB_UART_TX_UNDERFLOW | CY_SCB_UA
 961:Generated_Source\PSoC6\pdl\drivers/peripheral/scb/cy_scb_uart.h ****                                      CY_SCB_UART_TX_NACK     | CY_SCB_UART_TX_ARB_LOST)
 962:Generated_Source\PSoC6\pdl\drivers/peripheral/scb/cy_scb_uart.h **** 
 963:Generated_Source\PSoC6\pdl\drivers/peripheral/scb/cy_scb_uart.h **** #define CY_SCB_UART_RX_INTR_MASK    (CY_SCB_UART_RX_TRIGGER    | CY_SCB_UART_RX_NOT_EMPTY | CY_SCB_
 964:Generated_Source\PSoC6\pdl\drivers/peripheral/scb/cy_scb_uart.h ****                                      CY_SCB_UART_RX_OVERFLOW   | CY_SCB_UART_RX_UNDERFLOW | CY_SCB_
 965:Generated_Source\PSoC6\pdl\drivers/peripheral/scb/cy_scb_uart.h ****                                      CY_SCB_UART_RX_ERR_PARITY | CY_SCB_UART_RX_BREAK_DETECT)
 966:Generated_Source\PSoC6\pdl\drivers/peripheral/scb/cy_scb_uart.h **** 
 967:Generated_Source\PSoC6\pdl\drivers/peripheral/scb/cy_scb_uart.h **** #define CY_SCB_UART_TX_INTR        (CY_SCB_TX_INTR_LEVEL | CY_SCB_TX_INTR_UART_NACK | CY_SCB_TX_INT
 968:Generated_Source\PSoC6\pdl\drivers/peripheral/scb/cy_scb_uart.h **** 
 969:Generated_Source\PSoC6\pdl\drivers/peripheral/scb/cy_scb_uart.h **** #define CY_SCB_UART_RX_INTR        (CY_SCB_RX_INTR_LEVEL | CY_SCB_RX_INTR_OVERFLOW | CY_SCB_RX_INTR
 970:Generated_Source\PSoC6\pdl\drivers/peripheral/scb/cy_scb_uart.h ****                                     CY_SCB_RX_INTR_UART_PARITY_ERROR | CY_SCB_RX_INTR_UART_BREAK_DE
ARM GAS  C:\Users\fatim\AppData\Local\Temp\ccJComZj.s 			page 20


 971:Generated_Source\PSoC6\pdl\drivers/peripheral/scb/cy_scb_uart.h **** 
 972:Generated_Source\PSoC6\pdl\drivers/peripheral/scb/cy_scb_uart.h **** #define CY_SCB_UART_RECEIVE_ERR    (CY_SCB_RX_INTR_OVERFLOW | CY_SCB_RX_INTR_UART_FRAME_ERROR | \
 973:Generated_Source\PSoC6\pdl\drivers/peripheral/scb/cy_scb_uart.h ****                                     CY_SCB_RX_INTR_UART_PARITY_ERROR)
 974:Generated_Source\PSoC6\pdl\drivers/peripheral/scb/cy_scb_uart.h **** 
 975:Generated_Source\PSoC6\pdl\drivers/peripheral/scb/cy_scb_uart.h **** #define CY_SCB_UART_TRANSMIT_ERR   (CY_SCB_TX_INTR_UART_NACK | CY_SCB_TX_INTR_UART_ARB_LOST)
 976:Generated_Source\PSoC6\pdl\drivers/peripheral/scb/cy_scb_uart.h **** 
 977:Generated_Source\PSoC6\pdl\drivers/peripheral/scb/cy_scb_uart.h **** #define CY_SCB_UART_INIT_KEY       (0x00ABCDEFUL)
 978:Generated_Source\PSoC6\pdl\drivers/peripheral/scb/cy_scb_uart.h **** 
 979:Generated_Source\PSoC6\pdl\drivers/peripheral/scb/cy_scb_uart.h **** #define CY_SCB_UART_IS_MODE_VALID(mode)     ( (CY_SCB_UART_STANDARD  == (mode)) || \
 980:Generated_Source\PSoC6\pdl\drivers/peripheral/scb/cy_scb_uart.h ****                                               (CY_SCB_UART_SMARTCARD == (mode)) || \
 981:Generated_Source\PSoC6\pdl\drivers/peripheral/scb/cy_scb_uart.h ****                                               (CY_SCB_UART_IRDA      == (mode)) )
 982:Generated_Source\PSoC6\pdl\drivers/peripheral/scb/cy_scb_uart.h **** 
 983:Generated_Source\PSoC6\pdl\drivers/peripheral/scb/cy_scb_uart.h **** #define CY_SCB_UART_IS_STOP_BITS_VALID(stopBits)    ( (CY_SCB_UART_STOP_BITS_1   == (stopBits)) || 
 984:Generated_Source\PSoC6\pdl\drivers/peripheral/scb/cy_scb_uart.h ****                                                       (CY_SCB_UART_STOP_BITS_1_5 == (stopBits)) || 
 985:Generated_Source\PSoC6\pdl\drivers/peripheral/scb/cy_scb_uart.h ****                                                       (CY_SCB_UART_STOP_BITS_2   == (stopBits)) || 
 986:Generated_Source\PSoC6\pdl\drivers/peripheral/scb/cy_scb_uart.h ****                                                       (CY_SCB_UART_STOP_BITS_2_5 == (stopBits)) || 
 987:Generated_Source\PSoC6\pdl\drivers/peripheral/scb/cy_scb_uart.h ****                                                       (CY_SCB_UART_STOP_BITS_3   == (stopBits)) || 
 988:Generated_Source\PSoC6\pdl\drivers/peripheral/scb/cy_scb_uart.h ****                                                       (CY_SCB_UART_STOP_BITS_3_5 == (stopBits)) || 
 989:Generated_Source\PSoC6\pdl\drivers/peripheral/scb/cy_scb_uart.h ****                                                       (CY_SCB_UART_STOP_BITS_4   == (stopBits)) )
 990:Generated_Source\PSoC6\pdl\drivers/peripheral/scb/cy_scb_uart.h **** 
 991:Generated_Source\PSoC6\pdl\drivers/peripheral/scb/cy_scb_uart.h **** #define CY_SCB_UART_IS_PARITY_VALID(parity)         ( (CY_SCB_UART_PARITY_NONE == (parity)) || \
 992:Generated_Source\PSoC6\pdl\drivers/peripheral/scb/cy_scb_uart.h ****                                                       (CY_SCB_UART_PARITY_EVEN == (parity)) || \
 993:Generated_Source\PSoC6\pdl\drivers/peripheral/scb/cy_scb_uart.h ****                                                       (CY_SCB_UART_PARITY_ODD  == (parity)) )
 994:Generated_Source\PSoC6\pdl\drivers/peripheral/scb/cy_scb_uart.h **** 
 995:Generated_Source\PSoC6\pdl\drivers/peripheral/scb/cy_scb_uart.h **** #define CY_SCB_UART_IS_POLARITY_VALID(polarity)     ( (CY_SCB_UART_ACTIVE_LOW  == (polarity)) || \
 996:Generated_Source\PSoC6\pdl\drivers/peripheral/scb/cy_scb_uart.h ****                                                       (CY_SCB_UART_ACTIVE_HIGH == (polarity)) )
 997:Generated_Source\PSoC6\pdl\drivers/peripheral/scb/cy_scb_uart.h **** 
 998:Generated_Source\PSoC6\pdl\drivers/peripheral/scb/cy_scb_uart.h **** #define CY_SCB_UART_IS_IRDA_LP_OVS_VALID(ovs)       ( (CY_SCB_UART_IRDA_LP_OVS16   == (ovs)) || \
 999:Generated_Source\PSoC6\pdl\drivers/peripheral/scb/cy_scb_uart.h ****                                                       (CY_SCB_UART_IRDA_LP_OVS32   == (ovs)) || \
1000:Generated_Source\PSoC6\pdl\drivers/peripheral/scb/cy_scb_uart.h ****                                                       (CY_SCB_UART_IRDA_LP_OVS48   == (ovs)) || \
1001:Generated_Source\PSoC6\pdl\drivers/peripheral/scb/cy_scb_uart.h ****                                                       (CY_SCB_UART_IRDA_LP_OVS96   == (ovs)) || \
1002:Generated_Source\PSoC6\pdl\drivers/peripheral/scb/cy_scb_uart.h ****                                                       (CY_SCB_UART_IRDA_LP_OVS192  == (ovs)) || \
1003:Generated_Source\PSoC6\pdl\drivers/peripheral/scb/cy_scb_uart.h ****                                                       (CY_SCB_UART_IRDA_LP_OVS768  == (ovs)) || \
1004:Generated_Source\PSoC6\pdl\drivers/peripheral/scb/cy_scb_uart.h ****                                                       (CY_SCB_UART_IRDA_LP_OVS1536 == (ovs)) )
1005:Generated_Source\PSoC6\pdl\drivers/peripheral/scb/cy_scb_uart.h **** 
1006:Generated_Source\PSoC6\pdl\drivers/peripheral/scb/cy_scb_uart.h **** #define CY_SCB_UART_IS_ADDRESS_VALID(addr)          ((addr) <= 0xFFUL)
1007:Generated_Source\PSoC6\pdl\drivers/peripheral/scb/cy_scb_uart.h **** #define CY_SCB_UART_IS_ADDRESS_MASK_VALID(mask)     ((mask) <= 0xFFUL)
1008:Generated_Source\PSoC6\pdl\drivers/peripheral/scb/cy_scb_uart.h **** #define CY_SCB_UART_IS_DATA_WIDTH_VALID(width)      ( ((width) >= 5UL) && ((width) <= 9UL) )
1009:Generated_Source\PSoC6\pdl\drivers/peripheral/scb/cy_scb_uart.h **** #define CY_SCB_UART_IS_OVERSAMPLE_VALID(ovs, mode, lpRx)    ( ((CY_SCB_UART_STANDARD  == (mode)) ||
1010:Generated_Source\PSoC6\pdl\drivers/peripheral/scb/cy_scb_uart.h ****                                                               (((ovs) >= 8UL) && ((ovs) <= 16UL)) :
1011:Generated_Source\PSoC6\pdl\drivers/peripheral/scb/cy_scb_uart.h ****                                                               ((lpRx) ? CY_SCB_UART_IS_IRDA_LP_OVS_
1012:Generated_Source\PSoC6\pdl\drivers/peripheral/scb/cy_scb_uart.h **** 
1013:Generated_Source\PSoC6\pdl\drivers/peripheral/scb/cy_scb_uart.h **** #define CY_SCB_UART_IS_RX_BREAK_WIDTH_VALID(base, width)    ( ((width) >= (_FLD2VAL(SCB_RX_CTRL_DAT
1014:Generated_Source\PSoC6\pdl\drivers/peripheral/scb/cy_scb_uart.h ****                                                               ((width) <= 16UL) )
1015:Generated_Source\PSoC6\pdl\drivers/peripheral/scb/cy_scb_uart.h **** #define CY_SCB_UART_IS_TX_BREAK_WIDTH_VALID(width)          ( ((width) >= 4UL) && ((width) <= 16UL)
1016:Generated_Source\PSoC6\pdl\drivers/peripheral/scb/cy_scb_uart.h **** 
1017:Generated_Source\PSoC6\pdl\drivers/peripheral/scb/cy_scb_uart.h **** #define CY_SCB_UART_IS_MUTLI_PROC_VALID(mp, mode, width, parity)    ( (mp) ? ((CY_SCB_UART_STANDARD
1018:Generated_Source\PSoC6\pdl\drivers/peripheral/scb/cy_scb_uart.h ****                                                                               (CY_SCB_UART_PARITY_N
1019:Generated_Source\PSoC6\pdl\drivers/peripheral/scb/cy_scb_uart.h **** /** \endcond */
1020:Generated_Source\PSoC6\pdl\drivers/peripheral/scb/cy_scb_uart.h **** 
1021:Generated_Source\PSoC6\pdl\drivers/peripheral/scb/cy_scb_uart.h **** /** \} group_scb_uart_macros */
1022:Generated_Source\PSoC6\pdl\drivers/peripheral/scb/cy_scb_uart.h **** 
1023:Generated_Source\PSoC6\pdl\drivers/peripheral/scb/cy_scb_uart.h **** 
1024:Generated_Source\PSoC6\pdl\drivers/peripheral/scb/cy_scb_uart.h **** /*******************************************************************************
1025:Generated_Source\PSoC6\pdl\drivers/peripheral/scb/cy_scb_uart.h **** *                    In-line Function Implementation
1026:Generated_Source\PSoC6\pdl\drivers/peripheral/scb/cy_scb_uart.h **** *******************************************************************************/
1027:Generated_Source\PSoC6\pdl\drivers/peripheral/scb/cy_scb_uart.h **** 
ARM GAS  C:\Users\fatim\AppData\Local\Temp\ccJComZj.s 			page 21


1028:Generated_Source\PSoC6\pdl\drivers/peripheral/scb/cy_scb_uart.h **** /**
1029:Generated_Source\PSoC6\pdl\drivers/peripheral/scb/cy_scb_uart.h **** * \addtogroup group_scb_uart_general_functions
1030:Generated_Source\PSoC6\pdl\drivers/peripheral/scb/cy_scb_uart.h **** * \{
1031:Generated_Source\PSoC6\pdl\drivers/peripheral/scb/cy_scb_uart.h **** */
1032:Generated_Source\PSoC6\pdl\drivers/peripheral/scb/cy_scb_uart.h **** 
1033:Generated_Source\PSoC6\pdl\drivers/peripheral/scb/cy_scb_uart.h **** /*******************************************************************************
1034:Generated_Source\PSoC6\pdl\drivers/peripheral/scb/cy_scb_uart.h **** * Function Name: Cy_SCB_UART_Enable
1035:Generated_Source\PSoC6\pdl\drivers/peripheral/scb/cy_scb_uart.h **** ****************************************************************************//**
1036:Generated_Source\PSoC6\pdl\drivers/peripheral/scb/cy_scb_uart.h **** *
1037:Generated_Source\PSoC6\pdl\drivers/peripheral/scb/cy_scb_uart.h **** * Enables the SCB block for the UART operation.
1038:Generated_Source\PSoC6\pdl\drivers/peripheral/scb/cy_scb_uart.h **** *
1039:Generated_Source\PSoC6\pdl\drivers/peripheral/scb/cy_scb_uart.h **** * \param base
1040:Generated_Source\PSoC6\pdl\drivers/peripheral/scb/cy_scb_uart.h **** * The pointer to the UART SCB instance.
1041:Generated_Source\PSoC6\pdl\drivers/peripheral/scb/cy_scb_uart.h **** *
1042:Generated_Source\PSoC6\pdl\drivers/peripheral/scb/cy_scb_uart.h **** *******************************************************************************/
1043:Generated_Source\PSoC6\pdl\drivers/peripheral/scb/cy_scb_uart.h **** __STATIC_INLINE void Cy_SCB_UART_Enable(CySCB_Type *base)
1044:Generated_Source\PSoC6\pdl\drivers/peripheral/scb/cy_scb_uart.h **** {
1045:Generated_Source\PSoC6\pdl\drivers/peripheral/scb/cy_scb_uart.h ****     SCB_CTRL(base) |= SCB_CTRL_ENABLED_Msk;
1046:Generated_Source\PSoC6\pdl\drivers/peripheral/scb/cy_scb_uart.h **** }
1047:Generated_Source\PSoC6\pdl\drivers/peripheral/scb/cy_scb_uart.h **** 
1048:Generated_Source\PSoC6\pdl\drivers/peripheral/scb/cy_scb_uart.h **** 
1049:Generated_Source\PSoC6\pdl\drivers/peripheral/scb/cy_scb_uart.h **** /*******************************************************************************
1050:Generated_Source\PSoC6\pdl\drivers/peripheral/scb/cy_scb_uart.h **** * Function Name: Cy_SCB_UART_EnableCts
1051:Generated_Source\PSoC6\pdl\drivers/peripheral/scb/cy_scb_uart.h **** ****************************************************************************//**
1052:Generated_Source\PSoC6\pdl\drivers/peripheral/scb/cy_scb_uart.h **** *
1053:Generated_Source\PSoC6\pdl\drivers/peripheral/scb/cy_scb_uart.h **** * Enables the Clear to Send (CTS) input for the UART. The UART will not transmit
1054:Generated_Source\PSoC6\pdl\drivers/peripheral/scb/cy_scb_uart.h **** * data while this signal is inactive.
1055:Generated_Source\PSoC6\pdl\drivers/peripheral/scb/cy_scb_uart.h **** *
1056:Generated_Source\PSoC6\pdl\drivers/peripheral/scb/cy_scb_uart.h **** * \param base
1057:Generated_Source\PSoC6\pdl\drivers/peripheral/scb/cy_scb_uart.h **** * The pointer to the UART SCB instance.
1058:Generated_Source\PSoC6\pdl\drivers/peripheral/scb/cy_scb_uart.h **** *
1059:Generated_Source\PSoC6\pdl\drivers/peripheral/scb/cy_scb_uart.h **** *******************************************************************************/
1060:Generated_Source\PSoC6\pdl\drivers/peripheral/scb/cy_scb_uart.h **** __STATIC_INLINE void Cy_SCB_UART_EnableCts(CySCB_Type *base)
1061:Generated_Source\PSoC6\pdl\drivers/peripheral/scb/cy_scb_uart.h **** {
1062:Generated_Source\PSoC6\pdl\drivers/peripheral/scb/cy_scb_uart.h ****     SCB_UART_FLOW_CTRL(base) |= SCB_UART_FLOW_CTRL_CTS_ENABLED_Msk;
1063:Generated_Source\PSoC6\pdl\drivers/peripheral/scb/cy_scb_uart.h **** }
1064:Generated_Source\PSoC6\pdl\drivers/peripheral/scb/cy_scb_uart.h **** 
1065:Generated_Source\PSoC6\pdl\drivers/peripheral/scb/cy_scb_uart.h **** 
1066:Generated_Source\PSoC6\pdl\drivers/peripheral/scb/cy_scb_uart.h **** /*******************************************************************************
1067:Generated_Source\PSoC6\pdl\drivers/peripheral/scb/cy_scb_uart.h **** * Function Name: Cy_SCB_UART_DisableCts
1068:Generated_Source\PSoC6\pdl\drivers/peripheral/scb/cy_scb_uart.h **** ****************************************************************************//**
1069:Generated_Source\PSoC6\pdl\drivers/peripheral/scb/cy_scb_uart.h **** *
1070:Generated_Source\PSoC6\pdl\drivers/peripheral/scb/cy_scb_uart.h **** * Disables the Clear to Send (CTS) input for the UART.
1071:Generated_Source\PSoC6\pdl\drivers/peripheral/scb/cy_scb_uart.h **** * See \ref Cy_SCB_UART_EnableCts for the details.
1072:Generated_Source\PSoC6\pdl\drivers/peripheral/scb/cy_scb_uart.h **** *
1073:Generated_Source\PSoC6\pdl\drivers/peripheral/scb/cy_scb_uart.h **** * \param base
1074:Generated_Source\PSoC6\pdl\drivers/peripheral/scb/cy_scb_uart.h **** * The pointer to the UART SCB instance.
1075:Generated_Source\PSoC6\pdl\drivers/peripheral/scb/cy_scb_uart.h **** *
1076:Generated_Source\PSoC6\pdl\drivers/peripheral/scb/cy_scb_uart.h **** *******************************************************************************/
1077:Generated_Source\PSoC6\pdl\drivers/peripheral/scb/cy_scb_uart.h **** __STATIC_INLINE void Cy_SCB_UART_DisableCts(CySCB_Type *base)
1078:Generated_Source\PSoC6\pdl\drivers/peripheral/scb/cy_scb_uart.h **** {
1079:Generated_Source\PSoC6\pdl\drivers/peripheral/scb/cy_scb_uart.h ****     SCB_UART_FLOW_CTRL(base) &= (uint32_t) ~SCB_UART_FLOW_CTRL_CTS_ENABLED_Msk;
1080:Generated_Source\PSoC6\pdl\drivers/peripheral/scb/cy_scb_uart.h **** }
1081:Generated_Source\PSoC6\pdl\drivers/peripheral/scb/cy_scb_uart.h **** 
1082:Generated_Source\PSoC6\pdl\drivers/peripheral/scb/cy_scb_uart.h **** 
1083:Generated_Source\PSoC6\pdl\drivers/peripheral/scb/cy_scb_uart.h **** /*******************************************************************************
1084:Generated_Source\PSoC6\pdl\drivers/peripheral/scb/cy_scb_uart.h **** * Function Name: Cy_SCB_UART_SetRtsFifoLevel
ARM GAS  C:\Users\fatim\AppData\Local\Temp\ccJComZj.s 			page 22


1085:Generated_Source\PSoC6\pdl\drivers/peripheral/scb/cy_scb_uart.h **** ****************************************************************************//**
1086:Generated_Source\PSoC6\pdl\drivers/peripheral/scb/cy_scb_uart.h **** *
1087:Generated_Source\PSoC6\pdl\drivers/peripheral/scb/cy_scb_uart.h **** * Sets a level for the Ready To Send (RTS) signal activation.
1088:Generated_Source\PSoC6\pdl\drivers/peripheral/scb/cy_scb_uart.h **** * When the number of data elements in the receive FIFO is below this level,
1089:Generated_Source\PSoC6\pdl\drivers/peripheral/scb/cy_scb_uart.h **** * then the RTS output is active. Otherwise, the RTS signal is inactive.
1090:Generated_Source\PSoC6\pdl\drivers/peripheral/scb/cy_scb_uart.h **** * To disable the RTS signal generation, set this level to zero.
1091:Generated_Source\PSoC6\pdl\drivers/peripheral/scb/cy_scb_uart.h **** *
1092:Generated_Source\PSoC6\pdl\drivers/peripheral/scb/cy_scb_uart.h **** * \param base
1093:Generated_Source\PSoC6\pdl\drivers/peripheral/scb/cy_scb_uart.h **** * The pointer to the UART SCB instance.
1094:Generated_Source\PSoC6\pdl\drivers/peripheral/scb/cy_scb_uart.h **** *
1095:Generated_Source\PSoC6\pdl\drivers/peripheral/scb/cy_scb_uart.h **** * \param level
1096:Generated_Source\PSoC6\pdl\drivers/peripheral/scb/cy_scb_uart.h **** * The level in the RX FIFO for RTS signal activation.
1097:Generated_Source\PSoC6\pdl\drivers/peripheral/scb/cy_scb_uart.h **** *
1098:Generated_Source\PSoC6\pdl\drivers/peripheral/scb/cy_scb_uart.h **** *******************************************************************************/
1099:Generated_Source\PSoC6\pdl\drivers/peripheral/scb/cy_scb_uart.h **** __STATIC_INLINE void Cy_SCB_UART_SetRtsFifoLevel(CySCB_Type *base, uint32_t level)
1100:Generated_Source\PSoC6\pdl\drivers/peripheral/scb/cy_scb_uart.h **** {
1101:Generated_Source\PSoC6\pdl\drivers/peripheral/scb/cy_scb_uart.h ****     CY_ASSERT_L2(CY_SCB_IS_TRIGGER_LEVEL_VALID(base, level));
1102:Generated_Source\PSoC6\pdl\drivers/peripheral/scb/cy_scb_uart.h **** 
1103:Generated_Source\PSoC6\pdl\drivers/peripheral/scb/cy_scb_uart.h ****     CY_REG32_CLR_SET(SCB_UART_FLOW_CTRL(base), SCB_UART_FLOW_CTRL_TRIGGER_LEVEL, level);
1104:Generated_Source\PSoC6\pdl\drivers/peripheral/scb/cy_scb_uart.h **** }
1105:Generated_Source\PSoC6\pdl\drivers/peripheral/scb/cy_scb_uart.h **** 
1106:Generated_Source\PSoC6\pdl\drivers/peripheral/scb/cy_scb_uart.h **** 
1107:Generated_Source\PSoC6\pdl\drivers/peripheral/scb/cy_scb_uart.h **** /*******************************************************************************
1108:Generated_Source\PSoC6\pdl\drivers/peripheral/scb/cy_scb_uart.h **** * Function Name: Cy_SCB_UART_GetRtsFifoLevel
1109:Generated_Source\PSoC6\pdl\drivers/peripheral/scb/cy_scb_uart.h **** ****************************************************************************//**
1110:Generated_Source\PSoC6\pdl\drivers/peripheral/scb/cy_scb_uart.h **** *
1111:Generated_Source\PSoC6\pdl\drivers/peripheral/scb/cy_scb_uart.h **** * Returns the level in the RX FIFO for the RTS signal activation.
1112:Generated_Source\PSoC6\pdl\drivers/peripheral/scb/cy_scb_uart.h **** *
1113:Generated_Source\PSoC6\pdl\drivers/peripheral/scb/cy_scb_uart.h **** * \param base
1114:Generated_Source\PSoC6\pdl\drivers/peripheral/scb/cy_scb_uart.h **** * The pointer to the UART SCB instance.
1115:Generated_Source\PSoC6\pdl\drivers/peripheral/scb/cy_scb_uart.h **** *
1116:Generated_Source\PSoC6\pdl\drivers/peripheral/scb/cy_scb_uart.h **** * \return
1117:Generated_Source\PSoC6\pdl\drivers/peripheral/scb/cy_scb_uart.h **** * The level in the RX FIFO for RTS signal activation.
1118:Generated_Source\PSoC6\pdl\drivers/peripheral/scb/cy_scb_uart.h **** *
1119:Generated_Source\PSoC6\pdl\drivers/peripheral/scb/cy_scb_uart.h **** *******************************************************************************/
1120:Generated_Source\PSoC6\pdl\drivers/peripheral/scb/cy_scb_uart.h **** __STATIC_INLINE uint32_t Cy_SCB_UART_GetRtsFifoLevel(CySCB_Type const *base)
1121:Generated_Source\PSoC6\pdl\drivers/peripheral/scb/cy_scb_uart.h **** {
1122:Generated_Source\PSoC6\pdl\drivers/peripheral/scb/cy_scb_uart.h ****     return _FLD2VAL(SCB_UART_FLOW_CTRL_TRIGGER_LEVEL, SCB_UART_FLOW_CTRL(base));
1123:Generated_Source\PSoC6\pdl\drivers/peripheral/scb/cy_scb_uart.h **** }
1124:Generated_Source\PSoC6\pdl\drivers/peripheral/scb/cy_scb_uart.h **** 
1125:Generated_Source\PSoC6\pdl\drivers/peripheral/scb/cy_scb_uart.h **** 
1126:Generated_Source\PSoC6\pdl\drivers/peripheral/scb/cy_scb_uart.h **** /*******************************************************************************
1127:Generated_Source\PSoC6\pdl\drivers/peripheral/scb/cy_scb_uart.h **** * Function Name: Cy_SCB_UART_EnableSkipStart
1128:Generated_Source\PSoC6\pdl\drivers/peripheral/scb/cy_scb_uart.h **** ****************************************************************************//**
1129:Generated_Source\PSoC6\pdl\drivers/peripheral/scb/cy_scb_uart.h **** *
1130:Generated_Source\PSoC6\pdl\drivers/peripheral/scb/cy_scb_uart.h **** * Enables the skip start-bit functionality.
1131:Generated_Source\PSoC6\pdl\drivers/peripheral/scb/cy_scb_uart.h **** * When skip start is enabled the UART hardware does not synchronize to a 
1132:Generated_Source\PSoC6\pdl\drivers/peripheral/scb/cy_scb_uart.h **** * start bit but synchronizes to the first rising edge. To create a rising edge, 
1133:Generated_Source\PSoC6\pdl\drivers/peripheral/scb/cy_scb_uart.h **** * the first data bit must be a 1. This feature is useful when the start bit 
1134:Generated_Source\PSoC6\pdl\drivers/peripheral/scb/cy_scb_uart.h **** * falling edge is used to wake the device through a GPIO interrupt.
1135:Generated_Source\PSoC6\pdl\drivers/peripheral/scb/cy_scb_uart.h **** *
1136:Generated_Source\PSoC6\pdl\drivers/peripheral/scb/cy_scb_uart.h **** * \param base
1137:Generated_Source\PSoC6\pdl\drivers/peripheral/scb/cy_scb_uart.h **** * The pointer to the UART SCB instance.
1138:Generated_Source\PSoC6\pdl\drivers/peripheral/scb/cy_scb_uart.h **** *
1139:Generated_Source\PSoC6\pdl\drivers/peripheral/scb/cy_scb_uart.h **** * \note
1140:Generated_Source\PSoC6\pdl\drivers/peripheral/scb/cy_scb_uart.h **** * When skip start-bit feature is enabled, it is applied (UART synchronizes 
1141:Generated_Source\PSoC6\pdl\drivers/peripheral/scb/cy_scb_uart.h **** * to the first rising edge after start bit) whenever the SCB is enabled. 
ARM GAS  C:\Users\fatim\AppData\Local\Temp\ccJComZj.s 			page 23


1142:Generated_Source\PSoC6\pdl\drivers/peripheral/scb/cy_scb_uart.h **** * This can cause incorrect UART synchronization and data reception when 
1143:Generated_Source\PSoC6\pdl\drivers/peripheral/scb/cy_scb_uart.h **** * the first data bit is not a 1. Therefore, disable the skip start-bit 
1144:Generated_Source\PSoC6\pdl\drivers/peripheral/scb/cy_scb_uart.h **** * when it should not be applied.
1145:Generated_Source\PSoC6\pdl\drivers/peripheral/scb/cy_scb_uart.h **** * Note that SCB is disabled before enter Deep Sleep mode or after calling 
1146:Generated_Source\PSoC6\pdl\drivers/peripheral/scb/cy_scb_uart.h **** * \ref Cy_SCB_UART_Disable.
1147:Generated_Source\PSoC6\pdl\drivers/peripheral/scb/cy_scb_uart.h **** *
1148:Generated_Source\PSoC6\pdl\drivers/peripheral/scb/cy_scb_uart.h **** *******************************************************************************/
1149:Generated_Source\PSoC6\pdl\drivers/peripheral/scb/cy_scb_uart.h **** __STATIC_INLINE void Cy_SCB_UART_EnableSkipStart(CySCB_Type *base)
1150:Generated_Source\PSoC6\pdl\drivers/peripheral/scb/cy_scb_uart.h **** {
1151:Generated_Source\PSoC6\pdl\drivers/peripheral/scb/cy_scb_uart.h ****     SCB_UART_RX_CTRL(base) |= SCB_UART_RX_CTRL_SKIP_START_Msk;
1152:Generated_Source\PSoC6\pdl\drivers/peripheral/scb/cy_scb_uart.h **** }
1153:Generated_Source\PSoC6\pdl\drivers/peripheral/scb/cy_scb_uart.h **** 
1154:Generated_Source\PSoC6\pdl\drivers/peripheral/scb/cy_scb_uart.h **** 
1155:Generated_Source\PSoC6\pdl\drivers/peripheral/scb/cy_scb_uart.h **** /*******************************************************************************
1156:Generated_Source\PSoC6\pdl\drivers/peripheral/scb/cy_scb_uart.h **** * Function Name: Cy_SCB_UART_DisableSkipStart
1157:Generated_Source\PSoC6\pdl\drivers/peripheral/scb/cy_scb_uart.h **** ****************************************************************************//**
1158:Generated_Source\PSoC6\pdl\drivers/peripheral/scb/cy_scb_uart.h **** *
1159:Generated_Source\PSoC6\pdl\drivers/peripheral/scb/cy_scb_uart.h **** * Disable the skip start-bit functionality.
1160:Generated_Source\PSoC6\pdl\drivers/peripheral/scb/cy_scb_uart.h **** * See \ref Cy_SCB_UART_EnableSkipStart for the details.
1161:Generated_Source\PSoC6\pdl\drivers/peripheral/scb/cy_scb_uart.h **** *
1162:Generated_Source\PSoC6\pdl\drivers/peripheral/scb/cy_scb_uart.h **** * \param base
1163:Generated_Source\PSoC6\pdl\drivers/peripheral/scb/cy_scb_uart.h **** * The pointer to the UART SCB instance.
1164:Generated_Source\PSoC6\pdl\drivers/peripheral/scb/cy_scb_uart.h **** *
1165:Generated_Source\PSoC6\pdl\drivers/peripheral/scb/cy_scb_uart.h **** *******************************************************************************/
1166:Generated_Source\PSoC6\pdl\drivers/peripheral/scb/cy_scb_uart.h **** __STATIC_INLINE void Cy_SCB_UART_DisableSkipStart(CySCB_Type *base)
1167:Generated_Source\PSoC6\pdl\drivers/peripheral/scb/cy_scb_uart.h **** {
1168:Generated_Source\PSoC6\pdl\drivers/peripheral/scb/cy_scb_uart.h ****     SCB_UART_RX_CTRL(base) &= (uint32_t) ~SCB_UART_RX_CTRL_SKIP_START_Msk;
1169:Generated_Source\PSoC6\pdl\drivers/peripheral/scb/cy_scb_uart.h **** }
1170:Generated_Source\PSoC6\pdl\drivers/peripheral/scb/cy_scb_uart.h **** /** \} group_scb_uart_general_functions */
1171:Generated_Source\PSoC6\pdl\drivers/peripheral/scb/cy_scb_uart.h **** 
1172:Generated_Source\PSoC6\pdl\drivers/peripheral/scb/cy_scb_uart.h **** 
1173:Generated_Source\PSoC6\pdl\drivers/peripheral/scb/cy_scb_uart.h **** /**
1174:Generated_Source\PSoC6\pdl\drivers/peripheral/scb/cy_scb_uart.h **** * \addtogroup group_scb_uart_low_level_functions
1175:Generated_Source\PSoC6\pdl\drivers/peripheral/scb/cy_scb_uart.h **** * \{
1176:Generated_Source\PSoC6\pdl\drivers/peripheral/scb/cy_scb_uart.h **** */
1177:Generated_Source\PSoC6\pdl\drivers/peripheral/scb/cy_scb_uart.h **** /*******************************************************************************
1178:Generated_Source\PSoC6\pdl\drivers/peripheral/scb/cy_scb_uart.h **** * Function Name: Cy_SCB_UART_Get
1179:Generated_Source\PSoC6\pdl\drivers/peripheral/scb/cy_scb_uart.h **** ****************************************************************************//**
1180:Generated_Source\PSoC6\pdl\drivers/peripheral/scb/cy_scb_uart.h **** *
1181:Generated_Source\PSoC6\pdl\drivers/peripheral/scb/cy_scb_uart.h **** * Reads a single data element from the UART RX FIFO.
1182:Generated_Source\PSoC6\pdl\drivers/peripheral/scb/cy_scb_uart.h **** * This function does not check whether the RX FIFO has data before reading it.
1183:Generated_Source\PSoC6\pdl\drivers/peripheral/scb/cy_scb_uart.h **** * If the RX FIFO is empty, the function returns \ref CY_SCB_UART_RX_NO_DATA.
1184:Generated_Source\PSoC6\pdl\drivers/peripheral/scb/cy_scb_uart.h **** *
1185:Generated_Source\PSoC6\pdl\drivers/peripheral/scb/cy_scb_uart.h **** * \param base
1186:Generated_Source\PSoC6\pdl\drivers/peripheral/scb/cy_scb_uart.h **** * The pointer to the UART SCB instance.
1187:Generated_Source\PSoC6\pdl\drivers/peripheral/scb/cy_scb_uart.h **** *
1188:Generated_Source\PSoC6\pdl\drivers/peripheral/scb/cy_scb_uart.h **** * \return
1189:Generated_Source\PSoC6\pdl\drivers/peripheral/scb/cy_scb_uart.h **** * Data from the RX FIFO.
1190:Generated_Source\PSoC6\pdl\drivers/peripheral/scb/cy_scb_uart.h **** * The data element size is defined by the configured data width.
1191:Generated_Source\PSoC6\pdl\drivers/peripheral/scb/cy_scb_uart.h **** *
1192:Generated_Source\PSoC6\pdl\drivers/peripheral/scb/cy_scb_uart.h **** *******************************************************************************/
1193:Generated_Source\PSoC6\pdl\drivers/peripheral/scb/cy_scb_uart.h **** __STATIC_INLINE uint32_t Cy_SCB_UART_Get(CySCB_Type const *base)
1194:Generated_Source\PSoC6\pdl\drivers/peripheral/scb/cy_scb_uart.h **** {
1195:Generated_Source\PSoC6\pdl\drivers/peripheral/scb/cy_scb_uart.h ****     return Cy_SCB_ReadRxFifo(base);
1196:Generated_Source\PSoC6\pdl\drivers/peripheral/scb/cy_scb_uart.h **** }
1197:Generated_Source\PSoC6\pdl\drivers/peripheral/scb/cy_scb_uart.h **** 
1198:Generated_Source\PSoC6\pdl\drivers/peripheral/scb/cy_scb_uart.h **** 
ARM GAS  C:\Users\fatim\AppData\Local\Temp\ccJComZj.s 			page 24


1199:Generated_Source\PSoC6\pdl\drivers/peripheral/scb/cy_scb_uart.h **** /*******************************************************************************
1200:Generated_Source\PSoC6\pdl\drivers/peripheral/scb/cy_scb_uart.h **** * Function Name: Cy_SCB_UART_GetArray
1201:Generated_Source\PSoC6\pdl\drivers/peripheral/scb/cy_scb_uart.h **** ****************************************************************************//**
1202:Generated_Source\PSoC6\pdl\drivers/peripheral/scb/cy_scb_uart.h **** *
1203:Generated_Source\PSoC6\pdl\drivers/peripheral/scb/cy_scb_uart.h **** * Reads an array of data out of the UART RX FIFO.
1204:Generated_Source\PSoC6\pdl\drivers/peripheral/scb/cy_scb_uart.h **** * This function does not block. It returns how many data elements were read
1205:Generated_Source\PSoC6\pdl\drivers/peripheral/scb/cy_scb_uart.h **** * from the RX FIFO.
1206:Generated_Source\PSoC6\pdl\drivers/peripheral/scb/cy_scb_uart.h **** *
1207:Generated_Source\PSoC6\pdl\drivers/peripheral/scb/cy_scb_uart.h **** * \param base
1208:Generated_Source\PSoC6\pdl\drivers/peripheral/scb/cy_scb_uart.h **** * The pointer to the UART SCB instance.
1209:Generated_Source\PSoC6\pdl\drivers/peripheral/scb/cy_scb_uart.h **** *
1210:Generated_Source\PSoC6\pdl\drivers/peripheral/scb/cy_scb_uart.h **** * \param buffer
1211:Generated_Source\PSoC6\pdl\drivers/peripheral/scb/cy_scb_uart.h **** * The pointer to the location to place the data read from the RX FIFO.
1212:Generated_Source\PSoC6\pdl\drivers/peripheral/scb/cy_scb_uart.h **** * The element size is defined by the data type, which depends on the configured
1213:Generated_Source\PSoC6\pdl\drivers/peripheral/scb/cy_scb_uart.h **** * data width.
1214:Generated_Source\PSoC6\pdl\drivers/peripheral/scb/cy_scb_uart.h **** *
1215:Generated_Source\PSoC6\pdl\drivers/peripheral/scb/cy_scb_uart.h **** * \param size
1216:Generated_Source\PSoC6\pdl\drivers/peripheral/scb/cy_scb_uart.h **** * The number of data elements to read from the RX FIFO.
1217:Generated_Source\PSoC6\pdl\drivers/peripheral/scb/cy_scb_uart.h **** *
1218:Generated_Source\PSoC6\pdl\drivers/peripheral/scb/cy_scb_uart.h **** * \return
1219:Generated_Source\PSoC6\pdl\drivers/peripheral/scb/cy_scb_uart.h **** * The number of data elements read from the RX FIFO.
1220:Generated_Source\PSoC6\pdl\drivers/peripheral/scb/cy_scb_uart.h **** *
1221:Generated_Source\PSoC6\pdl\drivers/peripheral/scb/cy_scb_uart.h **** *******************************************************************************/
1222:Generated_Source\PSoC6\pdl\drivers/peripheral/scb/cy_scb_uart.h **** __STATIC_INLINE uint32_t Cy_SCB_UART_GetArray(CySCB_Type const *base, void *buffer, uint32_t size)
1223:Generated_Source\PSoC6\pdl\drivers/peripheral/scb/cy_scb_uart.h **** {
1224:Generated_Source\PSoC6\pdl\drivers/peripheral/scb/cy_scb_uart.h ****     CY_ASSERT_L1(CY_SCB_IS_BUFFER_VALID(buffer, size));
1225:Generated_Source\PSoC6\pdl\drivers/peripheral/scb/cy_scb_uart.h **** 
1226:Generated_Source\PSoC6\pdl\drivers/peripheral/scb/cy_scb_uart.h ****     return Cy_SCB_ReadArray(base, buffer, size);
1227:Generated_Source\PSoC6\pdl\drivers/peripheral/scb/cy_scb_uart.h **** }
1228:Generated_Source\PSoC6\pdl\drivers/peripheral/scb/cy_scb_uart.h **** 
1229:Generated_Source\PSoC6\pdl\drivers/peripheral/scb/cy_scb_uart.h **** 
1230:Generated_Source\PSoC6\pdl\drivers/peripheral/scb/cy_scb_uart.h **** /*******************************************************************************
1231:Generated_Source\PSoC6\pdl\drivers/peripheral/scb/cy_scb_uart.h **** * Function Name: Cy_SCB_UART_GetArrayBlocking
1232:Generated_Source\PSoC6\pdl\drivers/peripheral/scb/cy_scb_uart.h **** ****************************************************************************//**
1233:Generated_Source\PSoC6\pdl\drivers/peripheral/scb/cy_scb_uart.h **** *
1234:Generated_Source\PSoC6\pdl\drivers/peripheral/scb/cy_scb_uart.h **** * Reads an array of data out of the UART RX FIFO.
1235:Generated_Source\PSoC6\pdl\drivers/peripheral/scb/cy_scb_uart.h **** * This function blocks until the number of data elements specified by the
1236:Generated_Source\PSoC6\pdl\drivers/peripheral/scb/cy_scb_uart.h **** * size has been read from the RX FIFO.
1237:Generated_Source\PSoC6\pdl\drivers/peripheral/scb/cy_scb_uart.h **** *
1238:Generated_Source\PSoC6\pdl\drivers/peripheral/scb/cy_scb_uart.h **** * \param base
1239:Generated_Source\PSoC6\pdl\drivers/peripheral/scb/cy_scb_uart.h **** * The pointer to the UART SCB instance.
1240:Generated_Source\PSoC6\pdl\drivers/peripheral/scb/cy_scb_uart.h **** *
1241:Generated_Source\PSoC6\pdl\drivers/peripheral/scb/cy_scb_uart.h **** * \param buffer
1242:Generated_Source\PSoC6\pdl\drivers/peripheral/scb/cy_scb_uart.h **** * The pointer to the location to place the data read from the RX FIFO.
1243:Generated_Source\PSoC6\pdl\drivers/peripheral/scb/cy_scb_uart.h **** * The element size is defined by the data type, which depends on the configured
1244:Generated_Source\PSoC6\pdl\drivers/peripheral/scb/cy_scb_uart.h **** * data width.
1245:Generated_Source\PSoC6\pdl\drivers/peripheral/scb/cy_scb_uart.h **** *
1246:Generated_Source\PSoC6\pdl\drivers/peripheral/scb/cy_scb_uart.h **** * \param size
1247:Generated_Source\PSoC6\pdl\drivers/peripheral/scb/cy_scb_uart.h **** * The number of data elements to read from the RX FIFO.
1248:Generated_Source\PSoC6\pdl\drivers/peripheral/scb/cy_scb_uart.h **** *
1249:Generated_Source\PSoC6\pdl\drivers/peripheral/scb/cy_scb_uart.h **** *******************************************************************************/
1250:Generated_Source\PSoC6\pdl\drivers/peripheral/scb/cy_scb_uart.h **** __STATIC_INLINE void Cy_SCB_UART_GetArrayBlocking(CySCB_Type const *base, void *buffer, uint32_t si
1251:Generated_Source\PSoC6\pdl\drivers/peripheral/scb/cy_scb_uart.h **** {
1252:Generated_Source\PSoC6\pdl\drivers/peripheral/scb/cy_scb_uart.h ****     CY_ASSERT_L1(CY_SCB_IS_BUFFER_VALID(buffer, size));
1253:Generated_Source\PSoC6\pdl\drivers/peripheral/scb/cy_scb_uart.h **** 
1254:Generated_Source\PSoC6\pdl\drivers/peripheral/scb/cy_scb_uart.h ****     Cy_SCB_ReadArrayBlocking(base, buffer, size);
1255:Generated_Source\PSoC6\pdl\drivers/peripheral/scb/cy_scb_uart.h **** }
ARM GAS  C:\Users\fatim\AppData\Local\Temp\ccJComZj.s 			page 25


1256:Generated_Source\PSoC6\pdl\drivers/peripheral/scb/cy_scb_uart.h **** 
1257:Generated_Source\PSoC6\pdl\drivers/peripheral/scb/cy_scb_uart.h **** 
1258:Generated_Source\PSoC6\pdl\drivers/peripheral/scb/cy_scb_uart.h **** /*******************************************************************************
1259:Generated_Source\PSoC6\pdl\drivers/peripheral/scb/cy_scb_uart.h **** * Function Name: Cy_SCB_UART_GetRxFifoStatus
1260:Generated_Source\PSoC6\pdl\drivers/peripheral/scb/cy_scb_uart.h **** ****************************************************************************//**
1261:Generated_Source\PSoC6\pdl\drivers/peripheral/scb/cy_scb_uart.h **** *
1262:Generated_Source\PSoC6\pdl\drivers/peripheral/scb/cy_scb_uart.h **** * Returns the current status of the RX FIFO.
1263:Generated_Source\PSoC6\pdl\drivers/peripheral/scb/cy_scb_uart.h **** *
1264:Generated_Source\PSoC6\pdl\drivers/peripheral/scb/cy_scb_uart.h **** * \param base
1265:Generated_Source\PSoC6\pdl\drivers/peripheral/scb/cy_scb_uart.h **** * The pointer to the UART SCB instance.
1266:Generated_Source\PSoC6\pdl\drivers/peripheral/scb/cy_scb_uart.h **** *
1267:Generated_Source\PSoC6\pdl\drivers/peripheral/scb/cy_scb_uart.h **** * \return
1268:Generated_Source\PSoC6\pdl\drivers/peripheral/scb/cy_scb_uart.h **** * \ref group_scb_uart_macros_rx_fifo_status
1269:Generated_Source\PSoC6\pdl\drivers/peripheral/scb/cy_scb_uart.h **** *
1270:Generated_Source\PSoC6\pdl\drivers/peripheral/scb/cy_scb_uart.h **** *******************************************************************************/
1271:Generated_Source\PSoC6\pdl\drivers/peripheral/scb/cy_scb_uart.h **** __STATIC_INLINE uint32_t Cy_SCB_UART_GetRxFifoStatus(CySCB_Type const *base)
1272:Generated_Source\PSoC6\pdl\drivers/peripheral/scb/cy_scb_uart.h **** {
1273:Generated_Source\PSoC6\pdl\drivers/peripheral/scb/cy_scb_uart.h ****     return (Cy_SCB_GetRxInterruptStatus(base) & CY_SCB_UART_RX_INTR_MASK);
1274:Generated_Source\PSoC6\pdl\drivers/peripheral/scb/cy_scb_uart.h **** }
1275:Generated_Source\PSoC6\pdl\drivers/peripheral/scb/cy_scb_uart.h **** 
1276:Generated_Source\PSoC6\pdl\drivers/peripheral/scb/cy_scb_uart.h **** 
1277:Generated_Source\PSoC6\pdl\drivers/peripheral/scb/cy_scb_uart.h **** /*******************************************************************************
1278:Generated_Source\PSoC6\pdl\drivers/peripheral/scb/cy_scb_uart.h **** * Function Name: Cy_SCB_UART_ClearRxFifoStatus
1279:Generated_Source\PSoC6\pdl\drivers/peripheral/scb/cy_scb_uart.h **** ****************************************************************************//**
1280:Generated_Source\PSoC6\pdl\drivers/peripheral/scb/cy_scb_uart.h **** *
1281:Generated_Source\PSoC6\pdl\drivers/peripheral/scb/cy_scb_uart.h **** * Clears the selected statuses of the RX FIFO.
1282:Generated_Source\PSoC6\pdl\drivers/peripheral/scb/cy_scb_uart.h **** *
1283:Generated_Source\PSoC6\pdl\drivers/peripheral/scb/cy_scb_uart.h **** * \param base
1284:Generated_Source\PSoC6\pdl\drivers/peripheral/scb/cy_scb_uart.h **** * The pointer to the UART SCB instance.
1285:Generated_Source\PSoC6\pdl\drivers/peripheral/scb/cy_scb_uart.h **** *
1286:Generated_Source\PSoC6\pdl\drivers/peripheral/scb/cy_scb_uart.h **** * \param clearMask
1287:Generated_Source\PSoC6\pdl\drivers/peripheral/scb/cy_scb_uart.h **** * The mask whose statuses to clear.
1288:Generated_Source\PSoC6\pdl\drivers/peripheral/scb/cy_scb_uart.h **** * See \ref group_scb_uart_macros_rx_fifo_status for the set of constants.
1289:Generated_Source\PSoC6\pdl\drivers/peripheral/scb/cy_scb_uart.h **** *
1290:Generated_Source\PSoC6\pdl\drivers/peripheral/scb/cy_scb_uart.h **** * \note
1291:Generated_Source\PSoC6\pdl\drivers/peripheral/scb/cy_scb_uart.h **** * * This status is also used for interrupt generation, so clearing it also
1292:Generated_Source\PSoC6\pdl\drivers/peripheral/scb/cy_scb_uart.h **** *   clears the interrupt sources.
1293:Generated_Source\PSoC6\pdl\drivers/peripheral/scb/cy_scb_uart.h **** * * Level-sensitive statuses such as \ref CY_SCB_UART_RX_TRIGGER,
1294:Generated_Source\PSoC6\pdl\drivers/peripheral/scb/cy_scb_uart.h **** *   \ref CY_SCB_UART_RX_NOT_EMPTY and \ref CY_SCB_UART_RX_FULL are set high again after
1295:Generated_Source\PSoC6\pdl\drivers/peripheral/scb/cy_scb_uart.h **** *   being cleared if the condition remains true.
1296:Generated_Source\PSoC6\pdl\drivers/peripheral/scb/cy_scb_uart.h **** *
1297:Generated_Source\PSoC6\pdl\drivers/peripheral/scb/cy_scb_uart.h **** *******************************************************************************/
1298:Generated_Source\PSoC6\pdl\drivers/peripheral/scb/cy_scb_uart.h **** __STATIC_INLINE void Cy_SCB_UART_ClearRxFifoStatus(CySCB_Type *base, uint32_t clearMask)
1299:Generated_Source\PSoC6\pdl\drivers/peripheral/scb/cy_scb_uart.h **** {
1300:Generated_Source\PSoC6\pdl\drivers/peripheral/scb/cy_scb_uart.h ****     CY_ASSERT_L2(CY_SCB_IS_INTR_VALID(clearMask, CY_SCB_UART_RX_INTR_MASK));
1301:Generated_Source\PSoC6\pdl\drivers/peripheral/scb/cy_scb_uart.h **** 
1302:Generated_Source\PSoC6\pdl\drivers/peripheral/scb/cy_scb_uart.h ****     Cy_SCB_ClearRxInterrupt(base, clearMask);
1303:Generated_Source\PSoC6\pdl\drivers/peripheral/scb/cy_scb_uart.h **** }
1304:Generated_Source\PSoC6\pdl\drivers/peripheral/scb/cy_scb_uart.h **** 
1305:Generated_Source\PSoC6\pdl\drivers/peripheral/scb/cy_scb_uart.h **** 
1306:Generated_Source\PSoC6\pdl\drivers/peripheral/scb/cy_scb_uart.h **** /*******************************************************************************
1307:Generated_Source\PSoC6\pdl\drivers/peripheral/scb/cy_scb_uart.h **** * Function Name: Cy_SCB_UART_GetNumInRxFifo
1308:Generated_Source\PSoC6\pdl\drivers/peripheral/scb/cy_scb_uart.h **** ****************************************************************************//**
1309:Generated_Source\PSoC6\pdl\drivers/peripheral/scb/cy_scb_uart.h **** *
1310:Generated_Source\PSoC6\pdl\drivers/peripheral/scb/cy_scb_uart.h **** * Returns the number of data elements in the UART RX FIFO.
1311:Generated_Source\PSoC6\pdl\drivers/peripheral/scb/cy_scb_uart.h **** *
1312:Generated_Source\PSoC6\pdl\drivers/peripheral/scb/cy_scb_uart.h **** * \param base
ARM GAS  C:\Users\fatim\AppData\Local\Temp\ccJComZj.s 			page 26


1313:Generated_Source\PSoC6\pdl\drivers/peripheral/scb/cy_scb_uart.h **** * The pointer to the UART SCB instance.
1314:Generated_Source\PSoC6\pdl\drivers/peripheral/scb/cy_scb_uart.h **** *
1315:Generated_Source\PSoC6\pdl\drivers/peripheral/scb/cy_scb_uart.h **** * \return
1316:Generated_Source\PSoC6\pdl\drivers/peripheral/scb/cy_scb_uart.h **** * The number of data elements in the RX FIFO.
1317:Generated_Source\PSoC6\pdl\drivers/peripheral/scb/cy_scb_uart.h **** * The size of date element defined by the configured data width.
1318:Generated_Source\PSoC6\pdl\drivers/peripheral/scb/cy_scb_uart.h **** *
1319:Generated_Source\PSoC6\pdl\drivers/peripheral/scb/cy_scb_uart.h **** *******************************************************************************/
1320:Generated_Source\PSoC6\pdl\drivers/peripheral/scb/cy_scb_uart.h **** __STATIC_INLINE uint32_t Cy_SCB_UART_GetNumInRxFifo(CySCB_Type const *base)
1321:Generated_Source\PSoC6\pdl\drivers/peripheral/scb/cy_scb_uart.h **** {
1322:Generated_Source\PSoC6\pdl\drivers/peripheral/scb/cy_scb_uart.h ****     return Cy_SCB_GetNumInRxFifo(base);
1323:Generated_Source\PSoC6\pdl\drivers/peripheral/scb/cy_scb_uart.h **** }
1324:Generated_Source\PSoC6\pdl\drivers/peripheral/scb/cy_scb_uart.h **** 
1325:Generated_Source\PSoC6\pdl\drivers/peripheral/scb/cy_scb_uart.h **** /*******************************************************************************
1326:Generated_Source\PSoC6\pdl\drivers/peripheral/scb/cy_scb_uart.h **** * Function Name: Cy_SCB_UART_ClearRxFifo
1327:Generated_Source\PSoC6\pdl\drivers/peripheral/scb/cy_scb_uart.h **** ****************************************************************************//**
1328:Generated_Source\PSoC6\pdl\drivers/peripheral/scb/cy_scb_uart.h **** *
1329:Generated_Source\PSoC6\pdl\drivers/peripheral/scb/cy_scb_uart.h **** * Clears all data out of the UART RX FIFO.
1330:Generated_Source\PSoC6\pdl\drivers/peripheral/scb/cy_scb_uart.h **** *
1331:Generated_Source\PSoC6\pdl\drivers/peripheral/scb/cy_scb_uart.h **** * \param base
1332:Generated_Source\PSoC6\pdl\drivers/peripheral/scb/cy_scb_uart.h **** * The pointer to the UART SCB instance.
1333:Generated_Source\PSoC6\pdl\drivers/peripheral/scb/cy_scb_uart.h **** *
1334:Generated_Source\PSoC6\pdl\drivers/peripheral/scb/cy_scb_uart.h **** * \sideeffect
1335:Generated_Source\PSoC6\pdl\drivers/peripheral/scb/cy_scb_uart.h **** * Any data currently in the shifter is cleared and lost.
1336:Generated_Source\PSoC6\pdl\drivers/peripheral/scb/cy_scb_uart.h **** *
1337:Generated_Source\PSoC6\pdl\drivers/peripheral/scb/cy_scb_uart.h **** *******************************************************************************/
1338:Generated_Source\PSoC6\pdl\drivers/peripheral/scb/cy_scb_uart.h **** __STATIC_INLINE void Cy_SCB_UART_ClearRxFifo(CySCB_Type *base)
1339:Generated_Source\PSoC6\pdl\drivers/peripheral/scb/cy_scb_uart.h **** {
1340:Generated_Source\PSoC6\pdl\drivers/peripheral/scb/cy_scb_uart.h ****     Cy_SCB_ClearRxFifo(base);
1341:Generated_Source\PSoC6\pdl\drivers/peripheral/scb/cy_scb_uart.h **** }
1342:Generated_Source\PSoC6\pdl\drivers/peripheral/scb/cy_scb_uart.h **** 
1343:Generated_Source\PSoC6\pdl\drivers/peripheral/scb/cy_scb_uart.h **** 
1344:Generated_Source\PSoC6\pdl\drivers/peripheral/scb/cy_scb_uart.h **** /*******************************************************************************
1345:Generated_Source\PSoC6\pdl\drivers/peripheral/scb/cy_scb_uart.h **** * Function Name: Cy_SCB_UART_Put
1346:Generated_Source\PSoC6\pdl\drivers/peripheral/scb/cy_scb_uart.h **** ****************************************************************************//**
1347:Generated_Source\PSoC6\pdl\drivers/peripheral/scb/cy_scb_uart.h **** *
1348:Generated_Source\PSoC6\pdl\drivers/peripheral/scb/cy_scb_uart.h **** * Places a single data element in the UART TX FIFO.
1349:Generated_Source\PSoC6\pdl\drivers/peripheral/scb/cy_scb_uart.h **** * This function does not block and returns how many data elements were placed
1350:Generated_Source\PSoC6\pdl\drivers/peripheral/scb/cy_scb_uart.h **** * in the TX FIFO.
1351:Generated_Source\PSoC6\pdl\drivers/peripheral/scb/cy_scb_uart.h **** *
1352:Generated_Source\PSoC6\pdl\drivers/peripheral/scb/cy_scb_uart.h **** * \param base
1353:Generated_Source\PSoC6\pdl\drivers/peripheral/scb/cy_scb_uart.h **** * The pointer to the UART SCB instance.
1354:Generated_Source\PSoC6\pdl\drivers/peripheral/scb/cy_scb_uart.h **** *
1355:Generated_Source\PSoC6\pdl\drivers/peripheral/scb/cy_scb_uart.h **** * \param data
1356:Generated_Source\PSoC6\pdl\drivers/peripheral/scb/cy_scb_uart.h **** * Data to put in the TX FIFO.
1357:Generated_Source\PSoC6\pdl\drivers/peripheral/scb/cy_scb_uart.h **** * The element size is defined by the data type, which depends on the configured
1358:Generated_Source\PSoC6\pdl\drivers/peripheral/scb/cy_scb_uart.h **** * data width.
1359:Generated_Source\PSoC6\pdl\drivers/peripheral/scb/cy_scb_uart.h **** *
1360:Generated_Source\PSoC6\pdl\drivers/peripheral/scb/cy_scb_uart.h **** * \return
1361:Generated_Source\PSoC6\pdl\drivers/peripheral/scb/cy_scb_uart.h **** * The number of data elements placed in the TX FIFO: 0 or 1.
1362:Generated_Source\PSoC6\pdl\drivers/peripheral/scb/cy_scb_uart.h **** *
1363:Generated_Source\PSoC6\pdl\drivers/peripheral/scb/cy_scb_uart.h **** *******************************************************************************/
1364:Generated_Source\PSoC6\pdl\drivers/peripheral/scb/cy_scb_uart.h **** __STATIC_INLINE uint32_t Cy_SCB_UART_Put(CySCB_Type *base, uint32_t data)
1365:Generated_Source\PSoC6\pdl\drivers/peripheral/scb/cy_scb_uart.h **** {
1366:Generated_Source\PSoC6\pdl\drivers/peripheral/scb/cy_scb_uart.h ****     return Cy_SCB_Write(base, data);
1367:Generated_Source\PSoC6\pdl\drivers/peripheral/scb/cy_scb_uart.h **** }
1368:Generated_Source\PSoC6\pdl\drivers/peripheral/scb/cy_scb_uart.h **** 
1369:Generated_Source\PSoC6\pdl\drivers/peripheral/scb/cy_scb_uart.h **** 
ARM GAS  C:\Users\fatim\AppData\Local\Temp\ccJComZj.s 			page 27


1370:Generated_Source\PSoC6\pdl\drivers/peripheral/scb/cy_scb_uart.h **** /*******************************************************************************
1371:Generated_Source\PSoC6\pdl\drivers/peripheral/scb/cy_scb_uart.h **** * Function Name: Cy_SCB_UART_PutArray
1372:Generated_Source\PSoC6\pdl\drivers/peripheral/scb/cy_scb_uart.h **** ****************************************************************************//**
1373:Generated_Source\PSoC6\pdl\drivers/peripheral/scb/cy_scb_uart.h **** *
1374:Generated_Source\PSoC6\pdl\drivers/peripheral/scb/cy_scb_uart.h **** * Places an array of data in the UART TX FIFO.
1375:Generated_Source\PSoC6\pdl\drivers/peripheral/scb/cy_scb_uart.h **** * This function does not block. It returns how many data elements were
1376:Generated_Source\PSoC6\pdl\drivers/peripheral/scb/cy_scb_uart.h **** * placed in the TX FIFO.
1377:Generated_Source\PSoC6\pdl\drivers/peripheral/scb/cy_scb_uart.h **** *
1378:Generated_Source\PSoC6\pdl\drivers/peripheral/scb/cy_scb_uart.h **** * \param base
1379:Generated_Source\PSoC6\pdl\drivers/peripheral/scb/cy_scb_uart.h **** * The pointer to the UART SCB instance.
1380:Generated_Source\PSoC6\pdl\drivers/peripheral/scb/cy_scb_uart.h **** *
1381:Generated_Source\PSoC6\pdl\drivers/peripheral/scb/cy_scb_uart.h **** * \param buffer
1382:Generated_Source\PSoC6\pdl\drivers/peripheral/scb/cy_scb_uart.h **** * The pointer to data to place in the TX FIFO.
1383:Generated_Source\PSoC6\pdl\drivers/peripheral/scb/cy_scb_uart.h **** * The element size is defined by the data type, which depends on the configured
1384:Generated_Source\PSoC6\pdl\drivers/peripheral/scb/cy_scb_uart.h **** * TX data width.
1385:Generated_Source\PSoC6\pdl\drivers/peripheral/scb/cy_scb_uart.h **** *
1386:Generated_Source\PSoC6\pdl\drivers/peripheral/scb/cy_scb_uart.h **** * \param size
1387:Generated_Source\PSoC6\pdl\drivers/peripheral/scb/cy_scb_uart.h **** * The number of data elements to TX.
1388:Generated_Source\PSoC6\pdl\drivers/peripheral/scb/cy_scb_uart.h **** *
1389:Generated_Source\PSoC6\pdl\drivers/peripheral/scb/cy_scb_uart.h **** * \return
1390:Generated_Source\PSoC6\pdl\drivers/peripheral/scb/cy_scb_uart.h **** * The number of data elements placed in the TX FIFO.
1391:Generated_Source\PSoC6\pdl\drivers/peripheral/scb/cy_scb_uart.h **** *
1392:Generated_Source\PSoC6\pdl\drivers/peripheral/scb/cy_scb_uart.h **** *******************************************************************************/
1393:Generated_Source\PSoC6\pdl\drivers/peripheral/scb/cy_scb_uart.h **** __STATIC_INLINE uint32_t Cy_SCB_UART_PutArray(CySCB_Type *base, void *buffer, uint32_t size)
1394:Generated_Source\PSoC6\pdl\drivers/peripheral/scb/cy_scb_uart.h **** {
1395:Generated_Source\PSoC6\pdl\drivers/peripheral/scb/cy_scb_uart.h ****     CY_ASSERT_L1(CY_SCB_IS_BUFFER_VALID(buffer, size));
1396:Generated_Source\PSoC6\pdl\drivers/peripheral/scb/cy_scb_uart.h **** 
1397:Generated_Source\PSoC6\pdl\drivers/peripheral/scb/cy_scb_uart.h ****     return Cy_SCB_WriteArray(base, buffer, size);
1398:Generated_Source\PSoC6\pdl\drivers/peripheral/scb/cy_scb_uart.h **** }
1399:Generated_Source\PSoC6\pdl\drivers/peripheral/scb/cy_scb_uart.h **** 
1400:Generated_Source\PSoC6\pdl\drivers/peripheral/scb/cy_scb_uart.h **** 
1401:Generated_Source\PSoC6\pdl\drivers/peripheral/scb/cy_scb_uart.h **** /*******************************************************************************
1402:Generated_Source\PSoC6\pdl\drivers/peripheral/scb/cy_scb_uart.h **** * Function Name: Cy_SCB_UART_PutArrayBlocking
1403:Generated_Source\PSoC6\pdl\drivers/peripheral/scb/cy_scb_uart.h **** ****************************************************************************//**
1404:Generated_Source\PSoC6\pdl\drivers/peripheral/scb/cy_scb_uart.h **** *
1405:Generated_Source\PSoC6\pdl\drivers/peripheral/scb/cy_scb_uart.h **** * Places an array of data in the UART TX FIFO.
1406:Generated_Source\PSoC6\pdl\drivers/peripheral/scb/cy_scb_uart.h **** * This function blocks until the number of data elements specified by the size
1407:Generated_Source\PSoC6\pdl\drivers/peripheral/scb/cy_scb_uart.h **** * is placed in the TX FIFO.
1408:Generated_Source\PSoC6\pdl\drivers/peripheral/scb/cy_scb_uart.h **** *
1409:Generated_Source\PSoC6\pdl\drivers/peripheral/scb/cy_scb_uart.h **** * \param base
1410:Generated_Source\PSoC6\pdl\drivers/peripheral/scb/cy_scb_uart.h **** * The pointer to the UART SCB instance.
1411:Generated_Source\PSoC6\pdl\drivers/peripheral/scb/cy_scb_uart.h **** *
1412:Generated_Source\PSoC6\pdl\drivers/peripheral/scb/cy_scb_uart.h **** * \param buffer
1413:Generated_Source\PSoC6\pdl\drivers/peripheral/scb/cy_scb_uart.h **** * The pointer to data to place in the TX FIFO.
1414:Generated_Source\PSoC6\pdl\drivers/peripheral/scb/cy_scb_uart.h **** * The element size is defined by the data type, which depends on the configured
1415:Generated_Source\PSoC6\pdl\drivers/peripheral/scb/cy_scb_uart.h **** * data width.
1416:Generated_Source\PSoC6\pdl\drivers/peripheral/scb/cy_scb_uart.h **** *
1417:Generated_Source\PSoC6\pdl\drivers/peripheral/scb/cy_scb_uart.h **** * \param size
1418:Generated_Source\PSoC6\pdl\drivers/peripheral/scb/cy_scb_uart.h **** * The number of data elements to write into the TX FIFO.
1419:Generated_Source\PSoC6\pdl\drivers/peripheral/scb/cy_scb_uart.h **** *
1420:Generated_Source\PSoC6\pdl\drivers/peripheral/scb/cy_scb_uart.h **** *******************************************************************************/
1421:Generated_Source\PSoC6\pdl\drivers/peripheral/scb/cy_scb_uart.h **** __STATIC_INLINE void Cy_SCB_UART_PutArrayBlocking(CySCB_Type *base, void *buffer, uint32_t size)
1422:Generated_Source\PSoC6\pdl\drivers/peripheral/scb/cy_scb_uart.h **** {
1423:Generated_Source\PSoC6\pdl\drivers/peripheral/scb/cy_scb_uart.h ****     CY_ASSERT_L1(CY_SCB_IS_BUFFER_VALID(buffer, size));
1424:Generated_Source\PSoC6\pdl\drivers/peripheral/scb/cy_scb_uart.h **** 
1425:Generated_Source\PSoC6\pdl\drivers/peripheral/scb/cy_scb_uart.h ****     Cy_SCB_WriteArrayBlocking(base, buffer, size);
1426:Generated_Source\PSoC6\pdl\drivers/peripheral/scb/cy_scb_uart.h **** }
ARM GAS  C:\Users\fatim\AppData\Local\Temp\ccJComZj.s 			page 28


1427:Generated_Source\PSoC6\pdl\drivers/peripheral/scb/cy_scb_uart.h **** 
1428:Generated_Source\PSoC6\pdl\drivers/peripheral/scb/cy_scb_uart.h **** 
1429:Generated_Source\PSoC6\pdl\drivers/peripheral/scb/cy_scb_uart.h **** /*******************************************************************************
1430:Generated_Source\PSoC6\pdl\drivers/peripheral/scb/cy_scb_uart.h **** * Function Name: Cy_SCB_UART_PutString
1431:Generated_Source\PSoC6\pdl\drivers/peripheral/scb/cy_scb_uart.h **** ****************************************************************************//**
1432:Generated_Source\PSoC6\pdl\drivers/peripheral/scb/cy_scb_uart.h **** *
1433:Generated_Source\PSoC6\pdl\drivers/peripheral/scb/cy_scb_uart.h **** * Places a NULL terminated string in the UART TX FIFO.
1434:Generated_Source\PSoC6\pdl\drivers/peripheral/scb/cy_scb_uart.h **** * This function blocks until the entire string is placed in the TX FIFO.
1435:Generated_Source\PSoC6\pdl\drivers/peripheral/scb/cy_scb_uart.h **** *
1436:Generated_Source\PSoC6\pdl\drivers/peripheral/scb/cy_scb_uart.h **** * \param base
1437:Generated_Source\PSoC6\pdl\drivers/peripheral/scb/cy_scb_uart.h **** * The pointer to the UART SCB instance.
1438:Generated_Source\PSoC6\pdl\drivers/peripheral/scb/cy_scb_uart.h **** *
1439:Generated_Source\PSoC6\pdl\drivers/peripheral/scb/cy_scb_uart.h **** * \param string
1440:Generated_Source\PSoC6\pdl\drivers/peripheral/scb/cy_scb_uart.h **** * The pointer to the null terminated string array.
1441:Generated_Source\PSoC6\pdl\drivers/peripheral/scb/cy_scb_uart.h **** *
1442:Generated_Source\PSoC6\pdl\drivers/peripheral/scb/cy_scb_uart.h **** *******************************************************************************/
1443:Generated_Source\PSoC6\pdl\drivers/peripheral/scb/cy_scb_uart.h **** __STATIC_INLINE void Cy_SCB_UART_PutString(CySCB_Type *base, char_t const string[])
1444:Generated_Source\PSoC6\pdl\drivers/peripheral/scb/cy_scb_uart.h **** {
1445:Generated_Source\PSoC6\pdl\drivers/peripheral/scb/cy_scb_uart.h ****     CY_ASSERT_L1(CY_SCB_IS_BUFFER_VALID(string, 1UL));
1446:Generated_Source\PSoC6\pdl\drivers/peripheral/scb/cy_scb_uart.h **** 
1447:Generated_Source\PSoC6\pdl\drivers/peripheral/scb/cy_scb_uart.h ****     Cy_SCB_WriteString(base, string);
  67              		.loc 2 1447 0
  68 0026 1049     		ldr	r1, .L5+8
  69 0028 1048     		ldr	r0, .L5+12
  70 002a FFF7FEFF 		bl	Cy_SCB_WriteString
  71              	.LVL6:
  72              	.LBE24:
  73              	.LBE23:
  74              	.LBE22:
  48:algorithme.c  ****     
  49:algorithme.c  ****     uint16_t j = 0;
  50:algorithme.c  ****     
  51:algorithme.c  ****     
  52:algorithme.c  ****     UART_1_PutString("//////////////////////////////////////////////////////////////////");
  53:algorithme.c  ****     for(j=0; j<BUFFER_LENGTH; j++){
  75              		.loc 1 53 0
  76 002e 0024     		movs	r4, #0
  77 0030 10E0     		b	.L2
  78              	.LVL7:
  79              	.L3:
  80              	.LBB25:
  54:algorithme.c  ****         //printf("%s \n\r", Output[j]);
  55:algorithme.c  ****         char cOutput[6];
  56:algorithme.c  ****         itoa(Output[j], cOutput, 10);
  81              		.loc 1 56 0 discriminator 3
  82 0032 0A22     		movs	r2, #10
  83 0034 03A9     		add	r1, sp, #12
  84 0036 56F82400 		ldr	r0, [r6, r4, lsl #2]
  85 003a FFF7FEFF 		bl	itoa
  86              	.LVL8:
  87              	.LBB26:
  88              	.LBB27:
  89              	.LBB28:
  90              		.loc 2 1447 0 discriminator 3
  91 003e 0B4D     		ldr	r5, .L5+12
  92 0040 03A9     		add	r1, sp, #12
  93              	.LVL9:
ARM GAS  C:\Users\fatim\AppData\Local\Temp\ccJComZj.s 			page 29


  94 0042 2846     		mov	r0, r5
  95 0044 FFF7FEFF 		bl	Cy_SCB_WriteString
  96              	.LVL10:
  97              	.LBE28:
  98              	.LBE27:
  99              	.LBE26:
 100              	.LBB29:
 101              	.LBB30:
 102              	.LBB31:
 103 0048 0949     		ldr	r1, .L5+16
 104 004a 2846     		mov	r0, r5
 105 004c FFF7FEFF 		bl	Cy_SCB_WriteString
 106              	.LVL11:
 107              	.LBE31:
 108              	.LBE30:
 109              	.LBE29:
 110              	.LBE25:
  53:algorithme.c  ****         //printf("%s \n\r", Output[j]);
 111              		.loc 1 53 0 discriminator 3
 112 0050 0134     		adds	r4, r4, #1
 113              	.LVL12:
 114 0052 A4B2     		uxth	r4, r4
 115              	.LVL13:
 116              	.L2:
  53:algorithme.c  ****         //printf("%s \n\r", Output[j]);
 117              		.loc 1 53 0 is_stmt 0 discriminator 1
 118 0054 B4F57A7F 		cmp	r4, #1000
 119 0058 EBD3     		bcc	.L3
  57:algorithme.c  ****         UART_1_PutString(cOutput);
  58:algorithme.c  ****         UART_1_PutString("\n\r");
  59:algorithme.c  ****         
  60:algorithme.c  ****     }
  61:algorithme.c  ****     
  62:algorithme.c  ****     
  63:algorithme.c  ****     if(j == 1000){
  64:algorithme.c  ****             j=0;
  65:algorithme.c  ****         }
  66:algorithme.c  ****     
  67:algorithme.c  **** }
 120              		.loc 1 67 0 is_stmt 1
 121 005a 08B0     		add	sp, sp, #32
 122              		.cfi_def_cfa_offset 16
 123              		@ sp needed
 124 005c 70BD     		pop	{r4, r5, r6, pc}
 125              	.LVL14:
 126              	.L6:
 127 005e 00BF     		.align	2
 128              	.L5:
 129 0060 00000000 		.word	firStateF32
 130 0064 00000000 		.word	.LANCHOR0
 131 0068 00000000 		.word	.LC0
 132 006c 00006640 		.word	1080426496
 133 0070 44000000 		.word	.LC1
 134              		.cfi_endproc
 135              	.LFE692:
 136              		.size	filtre, .-filtre
 137              		.section	.text.HeartRate,"ax",%progbits
ARM GAS  C:\Users\fatim\AppData\Local\Temp\ccJComZj.s 			page 30


 138              		.align	2
 139              		.global	HeartRate
 140              		.thumb
 141              		.thumb_func
 142              		.type	HeartRate, %function
 143              	HeartRate:
 144              	.LFB693:
  68:algorithme.c  **** 
  69:algorithme.c  **** /* Cette fonction calcule la frequence cardiaque. Elle prend en parametre
  70:algorithme.c  ****  le buffer rouge (ou infrarouge) filtré et l'intervalle de temps qui nous interesse et retourne le
  71:algorithme.c  **** */
  72:algorithme.c  **** float32_t HeartRate(uint32_t *Signal, uint16_t temps1, uint16_t temps2){
 145              		.loc 1 72 0
 146              		.cfi_startproc
 147              		@ args = 0, pretend = 0, frame = 0
 148              		@ frame_needed = 0, uses_anonymous_args = 0
 149              		@ link register save eliminated.
 150              	.LVL15:
 151 0000 30B4     		push	{r4, r5}
 152              		.cfi_def_cfa_offset 8
 153              		.cfi_offset 4, -8
 154              		.cfi_offset 5, -4
 155              	.LVL16:
  73:algorithme.c  ****       
  74:algorithme.c  ****     
  75:algorithme.c  ****     uint16_t compteur = 0; // initialisation du nombre de maximums
 156              		.loc 1 75 0
 157 0002 0025     		movs	r5, #0
  76:algorithme.c  ****     uint16_t i = 0;
  77:algorithme.c  ****     
  78:algorithme.c  ****     // On boucle sur toutes les valeurs du signal et on incremente le compteur
  79:algorithme.c  ****     // lorsqu'un maximum est trouvé
  80:algorithme.c  ****     for (i=temps1; i<temps2; i++)
 158              		.loc 1 80 0
 159 0004 11E0     		b	.L8
 160              	.LVL17:
 161              	.L10:
  81:algorithme.c  ****     {
  82:algorithme.c  ****         if (Signal[i-1]<Signal[i] && Signal[i+1]<Signal[i]){
 162              		.loc 1 82 0
 163 0006 01F18043 		add	r3, r1, #1073741824
 164 000a 013B     		subs	r3, r3, #1
 165 000c 50F82340 		ldr	r4, [r0, r3, lsl #2]
 166 0010 50F82130 		ldr	r3, [r0, r1, lsl #2]
 167 0014 9C42     		cmp	r4, r3
 168 0016 06D2     		bcs	.L9
 169              		.loc 1 82 0 is_stmt 0 discriminator 1
 170 0018 4C1C     		adds	r4, r1, #1
 171 001a 50F82440 		ldr	r4, [r0, r4, lsl #2]
 172 001e A342     		cmp	r3, r4
 173 0020 01D9     		bls	.L9
  83:algorithme.c  ****          compteur++;
 174              		.loc 1 83 0 is_stmt 1
 175 0022 0135     		adds	r5, r5, #1
 176              	.LVL18:
 177 0024 ADB2     		uxth	r5, r5
 178              	.LVL19:
ARM GAS  C:\Users\fatim\AppData\Local\Temp\ccJComZj.s 			page 31


 179              	.L9:
  80:algorithme.c  ****     {
 180              		.loc 1 80 0 discriminator 2
 181 0026 0131     		adds	r1, r1, #1
 182              	.LVL20:
 183 0028 89B2     		uxth	r1, r1
 184              	.LVL21:
 185              	.L8:
  80:algorithme.c  ****     {
 186              		.loc 1 80 0 is_stmt 0 discriminator 1
 187 002a 9142     		cmp	r1, r2
 188 002c EBD3     		bcc	.L10
 189              	.LVL22:
  84:algorithme.c  ****         }
  85:algorithme.c  ****     }
  86:algorithme.c  ****     
  87:algorithme.c  ****     // On met toutes les variables en float pour eviter les problemes lors du calcul
  88:algorithme.c  ****     float32_t secondes = SECONDES, minute = 60;
  89:algorithme.c  ****     float32_t bpm = (float32_t)compteur/secondes*minute;
 190              		.loc 1 89 0 is_stmt 1
 191 002e 07EE905A 		vmov	s15, r5	@ int
 192 0032 F8EE677A 		vcvt.f32.u32	s15, s15
 193 0036 F1EE046A 		vmov.f32	s13, #5.0e+0
 194 003a 87EEA67A 		vdiv.f32	s14, s15, s13
 195              	.LVL23:
  90:algorithme.c  ****     
  91:algorithme.c  ****     return bpm;
  92:algorithme.c  ****     
  93:algorithme.c  **** }
 196              		.loc 1 93 0
 197 003e DFED047A 		vldr.32	s15, .L12
 198 0042 67EE277A 		vmul.f32	s15, s14, s15
 199              	.LVL24:
 200 0046 17EE900A 		vmov	r0, s15
 201              	.LVL25:
 202 004a 30BC     		pop	{r4, r5}
 203              		.cfi_restore 5
 204              		.cfi_restore 4
 205              		.cfi_def_cfa_offset 0
 206              	.LVL26:
 207 004c 7047     		bx	lr
 208              	.L13:
 209 004e 00BF     		.align	2
 210              	.L12:
 211 0050 00007042 		.word	1114636288
 212              		.cfi_endproc
 213              	.LFE693:
 214              		.size	HeartRate, .-HeartRate
 215              		.section	.text.AC,"ax",%progbits
 216              		.align	2
 217              		.global	AC
 218              		.thumb
 219              		.thumb_func
 220              		.type	AC, %function
 221              	AC:
 222              	.LFB694:
  94:algorithme.c  **** 
ARM GAS  C:\Users\fatim\AppData\Local\Temp\ccJComZj.s 			page 32


  95:algorithme.c  **** 
  96:algorithme.c  **** /* Cette fonction calcule la composante AC du signal. Elle prend en 
  97:algorithme.c  ****  parametre le signal rouge ou infrarouge ainsi que le temps1 et temps2, soient
  98:algorithme.c  ****  soit le debut et la fin d'un echantillon de 1 seconde, et retourne la composante AC
  99:algorithme.c  **** */
 100:algorithme.c  **** float32_t AC(uint32_t *Signal, uint32_t temps1, uint32_t temps2){
 223              		.loc 1 100 0
 224              		.cfi_startproc
 225              		@ args = 0, pretend = 0, frame = 816
 226              		@ frame_needed = 0, uses_anonymous_args = 0
 227              	.LVL27:
 228 0000 30B5     		push	{r4, r5, lr}
 229              		.cfi_def_cfa_offset 12
 230              		.cfi_offset 4, -12
 231              		.cfi_offset 5, -8
 232              		.cfi_offset 14, -4
 233 0002 ADF54D7D 		sub	sp, sp, #820
 234              		.cfi_def_cfa_offset 832
 235              	.LVL28:
 101:algorithme.c  **** 
 102:algorithme.c  ****     uint32_t i, compteur = 0;
 236              		.loc 1 102 0
 237 0006 0023     		movs	r3, #0
 103:algorithme.c  ****     uint32_t Input[BLOCK_SIZE]; // initialisation du vecteur Input
 104:algorithme.c  ****     
 105:algorithme.c  ****     for (i=temps1; i<temps2; i++){ // le buffer input doit contenir la partie du signal qui nous in
 238              		.loc 1 105 0
 239 0008 06E0     		b	.L15
 240              	.LVL29:
 241              	.L16:
 106:algorithme.c  ****     Input[compteur]=Signal[i];   
 242              		.loc 1 106 0 discriminator 3
 243 000a 50F82150 		ldr	r5, [r0, r1, lsl #2]
 244 000e 04AC     		add	r4, sp, #16
 245 0010 44F82350 		str	r5, [r4, r3, lsl #2]
 107:algorithme.c  ****     compteur++;
 246              		.loc 1 107 0 discriminator 3
 247 0014 0133     		adds	r3, r3, #1
 248              	.LVL30:
 105:algorithme.c  ****     Input[compteur]=Signal[i];   
 249              		.loc 1 105 0 discriminator 3
 250 0016 0131     		adds	r1, r1, #1
 251              	.LVL31:
 252              	.L15:
 105:algorithme.c  ****     Input[compteur]=Signal[i];   
 253              		.loc 1 105 0 is_stmt 0 discriminator 1
 254 0018 9142     		cmp	r1, r2
 255 001a F6D3     		bcc	.L16
 256              	.LVL32:
 108:algorithme.c  ****     }
 109:algorithme.c  ****     
 110:algorithme.c  ****     uint32_t block_size = BLOCK_SIZE;
 111:algorithme.c  **** 
 112:algorithme.c  ****     // Calcul de la composante AC
 113:algorithme.c  ****     
 114:algorithme.c  ****     float32_t maximum, minimum, compoAC; // initialisation des variables
 115:algorithme.c  ****     uint32_t indexMax, indexMin;
ARM GAS  C:\Users\fatim\AppData\Local\Temp\ccJComZj.s 			page 33


 116:algorithme.c  ****     compteur = 0;
 117:algorithme.c  ****     
 118:algorithme.c  ****     // Calcul du maximum et du minimum
 119:algorithme.c  ****     arm_max_f32((float32_t*)&Input[0],block_size,&maximum,&indexMax);
 257              		.loc 1 119 0 is_stmt 1
 258 001c 01AB     		add	r3, sp, #4
 259 001e 03AA     		add	r2, sp, #12
 260              	.LVL33:
 261 0020 C821     		movs	r1, #200
 262              	.LVL34:
 263 0022 04A8     		add	r0, sp, #16
 264              	.LVL35:
 265 0024 FFF7FEFF 		bl	arm_max_f32
 266              	.LVL36:
 120:algorithme.c  ****     arm_min_f32((float32_t*)&Input[0],block_size,&minimum,&indexMin);
 267              		.loc 1 120 0
 268 0028 6B46     		mov	r3, sp
 269 002a 02AA     		add	r2, sp, #8
 270 002c C821     		movs	r1, #200
 271 002e 04A8     		add	r0, sp, #16
 272 0030 FFF7FEFF 		bl	arm_min_f32
 273              	.LVL37:
 121:algorithme.c  ****     
 122:algorithme.c  ****     compoAC=maximum-minimum;
 274              		.loc 1 122 0
 275 0034 9DED037A 		vldr.32	s14, [sp, #12]
 276 0038 DDED027A 		vldr.32	s15, [sp, #8]
 277              	.LVL38:
 123:algorithme.c  ****     
 124:algorithme.c  ****     return compoAC;
 125:algorithme.c  ****     
 126:algorithme.c  **** }
 278              		.loc 1 126 0
 279 003c 77EE677A 		vsub.f32	s15, s14, s15
 280              	.LVL39:
 281 0040 17EE900A 		vmov	r0, s15
 282 0044 0DF54D7D 		add	sp, sp, #820
 283              		.cfi_def_cfa_offset 12
 284              		@ sp needed
 285 0048 30BD     		pop	{r4, r5, pc}
 286              		.cfi_endproc
 287              	.LFE694:
 288              		.size	AC, .-AC
 289 004a 00BF     		.section	.text.DC,"ax",%progbits
 290              		.align	2
 291              		.global	DC
 292              		.thumb
 293              		.thumb_func
 294              		.type	DC, %function
 295              	DC:
 296              	.LFB695:
 127:algorithme.c  **** /* Cette fonction calcule la composante DC du signal. Elle prend en 
 128:algorithme.c  ****  parametre le signal rouge ou infrarouge ainsi que le temps1 et temps2, soient
 129:algorithme.c  ****  soit le debut et la fin d'un echantillon de 1 seconde, et retourne la composante DC
 130:algorithme.c  **** */
 131:algorithme.c  **** float32_t DC(uint32_t *Signal, uint32_t temps1, uint32_t temps2){
 297              		.loc 1 131 0
ARM GAS  C:\Users\fatim\AppData\Local\Temp\ccJComZj.s 			page 34


 298              		.cfi_startproc
 299              		@ args = 0, pretend = 0, frame = 808
 300              		@ frame_needed = 0, uses_anonymous_args = 0
 301              	.LVL40:
 302 0000 30B5     		push	{r4, r5, lr}
 303              		.cfi_def_cfa_offset 12
 304              		.cfi_offset 4, -12
 305              		.cfi_offset 5, -8
 306              		.cfi_offset 14, -4
 307 0002 ADF54B7D 		sub	sp, sp, #812
 308              		.cfi_def_cfa_offset 824
 309              	.LVL41:
 132:algorithme.c  ****     
 133:algorithme.c  ****     uint32_t i, compteur = 0;
 310              		.loc 1 133 0
 311 0006 0023     		movs	r3, #0
 134:algorithme.c  ****     uint32_t Input[BLOCK_SIZE];
 135:algorithme.c  ****     
 136:algorithme.c  ****     for (i=temps1; i<temps2; i++){ // le buffer input doit contenir la partie du signal qui nous in
 312              		.loc 1 136 0
 313 0008 06E0     		b	.L19
 314              	.LVL42:
 315              	.L20:
 137:algorithme.c  ****     Input[compteur]=Signal[i];   
 316              		.loc 1 137 0 discriminator 3
 317 000a 50F82150 		ldr	r5, [r0, r1, lsl #2]
 318 000e 02AC     		add	r4, sp, #8
 319 0010 44F82350 		str	r5, [r4, r3, lsl #2]
 138:algorithme.c  ****     compteur++;
 320              		.loc 1 138 0 discriminator 3
 321 0014 0133     		adds	r3, r3, #1
 322              	.LVL43:
 136:algorithme.c  ****     Input[compteur]=Signal[i];   
 323              		.loc 1 136 0 discriminator 3
 324 0016 0131     		adds	r1, r1, #1
 325              	.LVL44:
 326              	.L19:
 136:algorithme.c  ****     Input[compteur]=Signal[i];   
 327              		.loc 1 136 0 is_stmt 0 discriminator 1
 328 0018 9142     		cmp	r1, r2
 329 001a F6D3     		bcc	.L20
 330              	.LVL45:
 139:algorithme.c  ****     }    
 140:algorithme.c  ****     
 141:algorithme.c  ****     // Calcul de la composante DC du signal avec une moyenne
 142:algorithme.c  ****     
 143:algorithme.c  ****     uint32_t block_size = BLOCK_SIZE;
 144:algorithme.c  ****     float32_t compoDC;
 145:algorithme.c  ****             
 146:algorithme.c  ****     arm_mean_f32((float32_t*)&Input[0],block_size,&compoDC);
 331              		.loc 1 146 0 is_stmt 1
 332 001c 01AA     		add	r2, sp, #4
 333              	.LVL46:
 334 001e C821     		movs	r1, #200
 335              	.LVL47:
 336 0020 02A8     		add	r0, sp, #8
 337              	.LVL48:
ARM GAS  C:\Users\fatim\AppData\Local\Temp\ccJComZj.s 			page 35


 338 0022 FFF7FEFF 		bl	arm_mean_f32
 339              	.LVL49:
 147:algorithme.c  ****     
 148:algorithme.c  ****     return compoDC;
 149:algorithme.c  ****     
 150:algorithme.c  **** }
 340              		.loc 1 150 0
 341 0026 0198     		ldr	r0, [sp, #4]	@ float
 342 0028 0DF54B7D 		add	sp, sp, #812
 343              		.cfi_def_cfa_offset 12
 344              		@ sp needed
 345 002c 30BD     		pop	{r4, r5, pc}
 346              		.cfi_endproc
 347              	.LFE695:
 348              		.size	DC, .-DC
 349              		.global	__aeabi_f2d
 350              		.global	__aeabi_dmul
 351              		.global	__aeabi_dadd
 352              		.global	__aeabi_d2f
 353 002e 00BF     		.section	.text.calculSpO2,"ax",%progbits
 354              		.align	2
 355              		.global	calculSpO2
 356              		.thumb
 357              		.thumb_func
 358              		.type	calculSpO2, %function
 359              	calculSpO2:
 360              	.LFB696:
 151:algorithme.c  **** 
 152:algorithme.c  **** /* Cette fonction calcule la saturation sanguine en oxygene.
 153:algorithme.c  ****  Elle prend en parametres les signaux rouge et infrarouge ainsi que le temps1 et le temps2,
 154:algorithme.c  ****  soit l'intervalle de 5 secondes. Elle retourne le SpO2 pour 5 secondes
 155:algorithme.c  **** */
 156:algorithme.c  **** float32_t calculSpO2(uint32_t *InputRed, uint32_t *InputIR, uint16_t temps1, uint16_t temps2){
 361              		.loc 1 156 0
 362              		.cfi_startproc
 363              		@ args = 0, pretend = 0, frame = 96
 364              		@ frame_needed = 0, uses_anonymous_args = 0
 365              	.LVL50:
 366 0000 2DE9F047 		push	{r4, r5, r6, r7, r8, r9, r10, lr}
 367              		.cfi_def_cfa_offset 32
 368              		.cfi_offset 4, -32
 369              		.cfi_offset 5, -28
 370              		.cfi_offset 6, -24
 371              		.cfi_offset 7, -20
 372              		.cfi_offset 8, -16
 373              		.cfi_offset 9, -12
 374              		.cfi_offset 10, -8
 375              		.cfi_offset 14, -4
 376 0004 2DED028B 		vpush.64	{d8}
 377              		.cfi_def_cfa_offset 40
 378              		.cfi_offset 80, -40
 379              		.cfi_offset 81, -36
 380 0008 98B0     		sub	sp, sp, #96
 381              		.cfi_def_cfa_offset 136
 382 000a 8146     		mov	r9, r0
 383 000c 8846     		mov	r8, r1
 384 000e 9A46     		mov	r10, r3
ARM GAS  C:\Users\fatim\AppData\Local\Temp\ccJComZj.s 			page 36


 385              	.LVL51:
 157:algorithme.c  ****     
 158:algorithme.c  ****     // Coefficients de calibration
 159:algorithme.c  ****     float32_t a = 1.5958422;
 160:algorithme.c  ****     float32_t b = -34.6596622;
 161:algorithme.c  ****     float32_t c = 118.7;
 162:algorithme.c  ****     
 163:algorithme.c  ****     uint32_t i;
 164:algorithme.c  ****     // initialisation des buffers pour appeler les fonctions AC et DC
 165:algorithme.c  ****     float32_t AC660[SECONDES], DC660[SECONDES], AC880[SECONDES], DC880[SECONDES];
 166:algorithme.c  ****     
 167:algorithme.c  ****     // On appelle 5 fois les fonctions AC et DC pour les signaux rouges et infrarouges, ce qui corr
 168:algorithme.c  ****     // a une periode de 5 secondes
 169:algorithme.c  ****     uint32_t fech = BLOCK_SIZE;
 170:algorithme.c  ****     
 171:algorithme.c  ****     for(i=temps1/BLOCK_SIZE; i<temps2/BLOCK_SIZE; i++){
 386              		.loc 1 171 0
 387 0010 414C     		ldr	r4, .L26+16
 388 0012 A4FB0232 		umull	r3, r2, r4, r2
 389              	.LVL52:
 390 0016 9409     		lsrs	r4, r2, #6
 391              	.LVL53:
 392 0018 25E0     		b	.L23
 393              	.LVL54:
 394              	.L24:
 172:algorithme.c  ****         AC660[i]=AC(&InputRed[0],fech*i, fech*i + fech);
 395              		.loc 1 172 0 discriminator 3
 396 001a C825     		movs	r5, #200
 397 001c 05FB04F6 		mul	r6, r5, r4
 398 0020 671C     		adds	r7, r4, #1
 399 0022 05FB07F5 		mul	r5, r5, r7
 400 0026 2A46     		mov	r2, r5
 401 0028 3146     		mov	r1, r6
 402 002a 4846     		mov	r0, r9
 403 002c FFF7FEFF 		bl	AC
 404              	.LVL55:
 405 0030 18AB     		add	r3, sp, #96
 406 0032 03EB8404 		add	r4, r3, r4, lsl #2
 407              	.LVL56:
 408 0036 44F8140C 		str	r0, [r4, #-20]	@ float
 173:algorithme.c  ****         DC660[i]=DC(&InputRed[0],fech*i, fech*i + fech);
 409              		.loc 1 173 0 discriminator 3
 410 003a 2A46     		mov	r2, r5
 411 003c 3146     		mov	r1, r6
 412 003e 4846     		mov	r0, r9
 413 0040 FFF7FEFF 		bl	DC
 414              	.LVL57:
 415 0044 44F8280C 		str	r0, [r4, #-40]	@ float
 174:algorithme.c  ****         AC880[i]=AC(&InputIR[0],fech*i, fech*i + fech);
 416              		.loc 1 174 0 discriminator 3
 417 0048 2A46     		mov	r2, r5
 418 004a 3146     		mov	r1, r6
 419 004c 4046     		mov	r0, r8
 420 004e FFF7FEFF 		bl	AC
 421              	.LVL58:
 422 0052 44F83C0C 		str	r0, [r4, #-60]	@ float
 175:algorithme.c  ****         DC880[i]=DC(&InputIR[0],fech*i, fech*i + fech);
ARM GAS  C:\Users\fatim\AppData\Local\Temp\ccJComZj.s 			page 37


 423              		.loc 1 175 0 discriminator 3
 424 0056 2A46     		mov	r2, r5
 425 0058 3146     		mov	r1, r6
 426 005a 4046     		mov	r0, r8
 427 005c FFF7FEFF 		bl	DC
 428              	.LVL59:
 429 0060 44F8500C 		str	r0, [r4, #-80]	@ float
 430              	.LVL60:
 171:algorithme.c  ****         AC660[i]=AC(&InputRed[0],fech*i, fech*i + fech);
 431              		.loc 1 171 0 discriminator 3
 432 0064 3C46     		mov	r4, r7
 433              	.LVL61:
 434              	.L23:
 171:algorithme.c  ****         AC660[i]=AC(&InputRed[0],fech*i, fech*i + fech);
 435              		.loc 1 171 0 is_stmt 0 discriminator 1
 436 0066 2C4B     		ldr	r3, .L26+16
 437 0068 A3FB0A23 		umull	r2, r3, r3, r10
 438 006c B4EB931F 		cmp	r4, r3, lsr #6
 439 0070 D3D3     		bcc	.L24
 176:algorithme.c  ****     }
 177:algorithme.c  ****     
 178:algorithme.c  ****     // initialisation des variables utilisees pour calculer la saturation
 179:algorithme.c  ****     float32_t R;
 180:algorithme.c  ****     float32_t mAC660, mDC660, mAC880, mDC880; 
 181:algorithme.c  ****     
 182:algorithme.c  ****     // Calcul de la moyenne des composantes sur la periode de 5 secondes
 183:algorithme.c  ****     arm_mean_f32(&AC660[0],SECONDES,&mAC660);
 440              		.loc 1 183 0 is_stmt 1
 441 0072 03AA     		add	r2, sp, #12
 442 0074 0521     		movs	r1, #5
 443 0076 13A8     		add	r0, sp, #76
 444 0078 FFF7FEFF 		bl	arm_mean_f32
 445              	.LVL62:
 184:algorithme.c  ****     arm_mean_f32(&DC660[0],SECONDES,&mDC660);
 446              		.loc 1 184 0
 447 007c 02AA     		add	r2, sp, #8
 448 007e 0521     		movs	r1, #5
 449 0080 0EA8     		add	r0, sp, #56
 450 0082 FFF7FEFF 		bl	arm_mean_f32
 451              	.LVL63:
 185:algorithme.c  ****     arm_mean_f32(&AC880[0],SECONDES,&mAC880);
 452              		.loc 1 185 0
 453 0086 01AA     		add	r2, sp, #4
 454 0088 0521     		movs	r1, #5
 455 008a 09A8     		add	r0, sp, #36
 456 008c FFF7FEFF 		bl	arm_mean_f32
 457              	.LVL64:
 186:algorithme.c  ****     arm_mean_f32(&DC880[0],SECONDES,&mDC880);
 458              		.loc 1 186 0
 459 0090 6A46     		mov	r2, sp
 460 0092 0521     		movs	r1, #5
 461 0094 04A8     		add	r0, sp, #16
 462 0096 FFF7FEFF 		bl	arm_mean_f32
 463              	.LVL65:
 187:algorithme.c  ****     
 188:algorithme.c  ****     // Calcul du ratio R
 189:algorithme.c  ****     R=(mAC660/mDC660)/(mAC880/mDC880);
ARM GAS  C:\Users\fatim\AppData\Local\Temp\ccJComZj.s 			page 38


 464              		.loc 1 189 0
 465 009a DDED027A 		vldr.32	s15, [sp, #8]
 466 009e DDED036A 		vldr.32	s13, [sp, #12]
 467 00a2 86EEA77A 		vdiv.f32	s14, s13, s15
 468 00a6 DDED006A 		vldr.32	s13, [sp]
 469 00aa 9DED016A 		vldr.32	s12, [sp, #4]
 470 00ae C6EE267A 		vdiv.f32	s15, s12, s13
 471 00b2 87EE278A 		vdiv.f32	s16, s14, s15
 472              	.LVL66:
 190:algorithme.c  ****     
 191:algorithme.c  ****     // Calcul de la saturation sur une periode de 5 secondes
 192:algorithme.c  ****     float32_t SpO2=a*pow(R,2)+b*R+c;
 473              		.loc 1 192 0
 474 00b6 18EE100A 		vmov	r0, s16
 475 00ba FFF7FEFF 		bl	__aeabi_f2d
 476              	.LVL67:
 477 00be 0022     		movs	r2, #0
 478 00c0 4FF08043 		mov	r3, #1073741824
 479 00c4 FFF7FEFF 		bl	pow
 480              	.LVL68:
 481 00c8 0FA3     		adr	r3, .L26
 482 00ca D3E90023 		ldrd	r2, [r3]
 483 00ce FFF7FEFF 		bl	__aeabi_dmul
 484              	.LVL69:
 485 00d2 0446     		mov	r4, r0
 486              	.LVL70:
 487 00d4 0D46     		mov	r5, r1
 488 00d6 DFED117A 		vldr.32	s15, .L26+20
 489 00da 68EE277A 		vmul.f32	s15, s16, s15
 490 00de 17EE900A 		vmov	r0, s15
 491 00e2 FFF7FEFF 		bl	__aeabi_f2d
 492              	.LVL71:
 493 00e6 2246     		mov	r2, r4
 494 00e8 2B46     		mov	r3, r5
 495 00ea FFF7FEFF 		bl	__aeabi_dadd
 496              	.LVL72:
 497 00ee 08A3     		adr	r3, .L26+8
 498 00f0 D3E90023 		ldrd	r2, [r3]
 499 00f4 FFF7FEFF 		bl	__aeabi_dadd
 500              	.LVL73:
 501 00f8 FFF7FEFF 		bl	__aeabi_d2f
 502              	.LVL74:
 193:algorithme.c  ****     
 194:algorithme.c  ****     return SpO2;
 195:algorithme.c  ****     
 196:algorithme.c  **** }
 503              		.loc 1 196 0
 504 00fc 18B0     		add	sp, sp, #96
 505              		.cfi_def_cfa_offset 40
 506              		@ sp needed
 507 00fe BDEC028B 		vldm	sp!, {d8}
 508              		.cfi_restore 80
 509              		.cfi_restore 81
 510              		.cfi_def_cfa_offset 32
 511              	.LVL75:
 512 0102 BDE8F087 		pop	{r4, r5, r6, r7, r8, r9, r10, pc}
 513              	.LVL76:
ARM GAS  C:\Users\fatim\AppData\Local\Temp\ccJComZj.s 			page 39


 514              	.L27:
 515 0106 00BF     		.align	3
 516              	.L26:
 517 0108 000000E0 		.word	-536870912
 518 010c 9188F93F 		.word	1073318033
 519 0110 000000C0 		.word	-1073741824
 520 0114 CCAC5D40 		.word	1079880908
 521 0118 1F85EB51 		.word	1374389535
 522 011c 7EA30AC2 		.word	-1039490178
 523              		.cfi_endproc
 524              	.LFE696:
 525              		.size	calculSpO2, .-calculSpO2
 526              		.comm	firStateF32,4196,4
 527              		.global	filter_taps
 528              		.data
 529              		.align	2
 530              		.set	.LANCHOR0,. + 0
 531              		.type	filter_taps, %object
 532              		.size	filter_taps, 200
 533              	filter_taps:
 534 0000 6DA9033B 		.word	990095725
 535 0004 AA100F3B 		.word	990843050
 536 0008 1EA4273B 		.word	992453662
 537 000c AD4E4E3B 		.word	994987693
 538 0010 71E4813B 		.word	998368369
 539 0014 5133A43B 		.word	1000616785
 540 0018 910BCE3B 		.word	1003359121
 541 001c 7B32FF3B 		.word	1006580347
 542 0020 B2A11B3C 		.word	1008443826
 543 0024 43CB3A3C 		.word	1010486083
 544 0028 78B55C3C 		.word	1012708728
 545 002c 3F71803C 		.word	1015050559
 546 0030 0E66933C 		.word	1016292878
 547 0034 47E5A63C 		.word	1017570631
 548 0038 1F9DBA3C 		.word	1018862879
 549 003c 6A33CE3C 		.word	1020146538
 550 0040 F94DE13C 		.word	1021398521
 551 0044 9F92F33C 		.word	1022595743
 552 0048 8B52023D 		.word	1023562379
 553 004c BD180A3D 		.word	1024071869
 554 0050 27F6103D 		.word	1024521767
 555 0054 15C6163D 		.word	1024902677
 556 0058 376C1B3D 		.word	1025207351
 557 005c 70D01E3D 		.word	1025429616
 558 0060 DFDF203D 		.word	1025564639
 559 0064 1591213D 		.word	1025610005
 560 0068 DFDF203D 		.word	1025564639
 561 006c 70D01E3D 		.word	1025429616
 562 0070 376C1B3D 		.word	1025207351
 563 0074 15C6163D 		.word	1024902677
 564 0078 27F6103D 		.word	1024521767
 565 007c BD180A3D 		.word	1024071869
 566 0080 8B52023D 		.word	1023562379
 567 0084 9F92F33C 		.word	1022595743
 568 0088 F94DE13C 		.word	1021398521
 569 008c 6A33CE3C 		.word	1020146538
 570 0090 1F9DBA3C 		.word	1018862879
ARM GAS  C:\Users\fatim\AppData\Local\Temp\ccJComZj.s 			page 40


 571 0094 47E5A63C 		.word	1017570631
 572 0098 0E66933C 		.word	1016292878
 573 009c 3F71803C 		.word	1015050559
 574 00a0 78B55C3C 		.word	1012708728
 575 00a4 43CB3A3C 		.word	1010486083
 576 00a8 B2A11B3C 		.word	1008443826
 577 00ac 7B32FF3B 		.word	1006580347
 578 00b0 910BCE3B 		.word	1003359121
 579 00b4 5133A43B 		.word	1000616785
 580 00b8 71E4813B 		.word	998368369
 581 00bc AD4E4E3B 		.word	994987693
 582 00c0 1EA4273B 		.word	992453662
 583 00c4 AA100F3B 		.word	990843050
 584              		.section	.rodata.str1.4,"aMS",%progbits,1
 585              		.align	2
 586              	.LC0:
 587 0000 2F2F2F2F 		.ascii	"///////////////////////////////////////////////////"
 587      2F2F2F2F 
 587      2F2F2F2F 
 587      2F2F2F2F 
 587      2F2F2F2F 
 588 0033 2F2F2F2F 		.ascii	"///////////////\000"
 588      2F2F2F2F 
 588      2F2F2F2F 
 588      2F2F2F00 
 589 0043 00       		.space	1
 590              	.LC1:
 591 0044 0A0D00   		.ascii	"\012\015\000"
 592              		.text
 593              	.Letext0:
 594              		.file 3 "c:\\program files (x86)\\cypress\\psoc creator\\4.4\\psoc creator\\import\\gnu\\arm\\5.4.
 595              		.file 4 "c:\\program files (x86)\\cypress\\psoc creator\\4.4\\psoc creator\\import\\gnu\\arm\\5.4.
 596              		.file 5 "Generated_Source\\PSoC6\\pdl\\devices/psoc6/include/ip/cyip_scb.h"
 597              		.file 6 "Generated_Source\\PSoC6\\pdl\\devices/psoc6/include/psoc6_01_config.h"
 598              		.file 7 "Generated_Source\\PSoC6\\pdl\\drivers/peripheral/device/cy_device.h"
 599              		.file 8 "Generated_Source\\PSoC6\\pdl\\drivers/peripheral/syslib/cy_syslib.h"
 600              		.file 9 "Generated_Source\\PSoC6\\pdl\\drivers/peripheral/scb/cy_scb_i2c.h"
 601              		.file 10 "Generated_Source\\PSoC6\\pdl\\drivers/peripheral/scb/cy_scb_spi.h"
 602              		.file 11 "Generated_Source\\PSoC6\\pdl\\drivers/peripheral/tcpwm/cy_tcpwm_counter.h"
 603              		.file 12 ".\\CMSIS\\DSP\\Include/arm_math.h"
 604              		.file 13 "Generated_Source\\PSoC6/UART_1.h"
 605              		.file 14 ".\\CMSIS\\Core\\Include/core_cm4.h"
 606              		.file 15 "Generated_Source\\PSoC6/CY_EINK_SPIM.h"
 607              		.file 16 "Generated_Source\\PSoC6/CY_EINK_Timer.h"
 608              		.file 17 "Generated_Source\\PSoC6/I2C_BMI.h"
 609              		.file 18 "Generated_Source\\PSoC6/I2C_MAX.h"
 610              		.file 19 "Generated_Source\\PSoC6\\pdl\\drivers/peripheral/scb/cy_scb_common.h"
 611              		.file 20 "c:\\program files (x86)\\cypress\\psoc creator\\4.4\\psoc creator\\import\\gnu\\arm\\5.4
 612              		.file 21 "c:\\program files (x86)\\cypress\\psoc creator\\4.4\\psoc creator\\import\\gnu\\arm\\5.4