ARM GAS  C:\Users\marie\AppData\Local\Temp\ccX7Sgzy.s 			page 1


   1              		.syntax unified
   2              		.cpu cortex-m4
   3              		.eabi_attribute 27, 1
   4              		.fpu fpv4-sp-d16
   5              		.eabi_attribute 20, 1
   6              		.eabi_attribute 21, 1
   7              		.eabi_attribute 23, 3
   8              		.eabi_attribute 24, 1
   9              		.eabi_attribute 25, 1
  10              		.eabi_attribute 26, 1
  11              		.eabi_attribute 30, 1
  12              		.eabi_attribute 34, 1
  13              		.eabi_attribute 18, 4
  14              		.thumb
  15              		.syntax unified
  16              		.file	"bmi160_task.c"
  17              		.text
  18              	.Ltext0:
  19              		.cfi_sections	.debug_frame
  20              		.section	.text.bmi160Config,"ax",%progbits
  21              		.align	2
  22              		.thumb
  23              		.thumb_func
  24              		.type	bmi160Config, %function
  25              	bmi160Config:
  26              	.LFB662:
  27              		.file 1 "bmi160_task.c"
   1:bmi160_task.c **** /* ========================================
   2:bmi160_task.c ****  *
   3:bmi160_task.c ****  * Copyright YOUR COMPANY, THE YEAR
   4:bmi160_task.c ****  * All Rights Reserved
   5:bmi160_task.c ****  * UNPUBLISHED, LICENSED SOFTWARE.
   6:bmi160_task.c ****  *
   7:bmi160_task.c ****  * CONFIDENTIAL AND PROPRIETARY INFORMATION
   8:bmi160_task.c ****  * WHICH IS THE PROPERTY OF your company.
   9:bmi160_task.c ****  *
  10:bmi160_task.c ****  * ========================================
  11:bmi160_task.c **** */
  12:bmi160_task.c **** 
  13:bmi160_task.c **** #include "project.h"
  14:bmi160_task.c **** #include "FreeRTOS.h"
  15:bmi160_task.c **** #include "task.h"
  16:bmi160_task.c **** #include "bmi160_task.h"
  17:bmi160_task.c **** #include "bmi160.h"
  18:bmi160_task.c **** #include <stdio.h>
  19:bmi160_task.c **** #include "semphr.h"
  20:bmi160_task.c **** 
  21:bmi160_task.c **** 
  22:bmi160_task.c **** 
  23:bmi160_task.c **** static int8_t bmi160Write(uint8_t dev_adresse, uint8_t reg_adresse, uint8_t *data, uint16_t length)
  24:bmi160_task.c ****     
  25:bmi160_task.c ****     Cy_SCB_I2C_MasterSendStart(I2C_BMI_HW,dev_adresse,CY_SCB_I2C_WRITE_XFER,0,&I2C_BMI_context);
  26:bmi160_task.c ****     Cy_SCB_I2C_MasterWriteByte(I2C_BMI_HW,reg_adresse,0,&I2C_BMI_context);
  27:bmi160_task.c ****     for(int i = 0; i<length; i++)
  28:bmi160_task.c ****     {
  29:bmi160_task.c ****         Cy_SCB_I2C_MasterWriteByte(I2C_BMI_HW,data[i],0,&I2C_BMI_context);   
  30:bmi160_task.c ****     }
ARM GAS  C:\Users\marie\AppData\Local\Temp\ccX7Sgzy.s 			page 2


  31:bmi160_task.c ****     
  32:bmi160_task.c ****     Cy_SCB_I2C_MasterSendStop(I2C_BMI_HW,0,&I2C_BMI_context);
  33:bmi160_task.c ****     return 0;
  34:bmi160_task.c **** } 
  35:bmi160_task.c **** 
  36:bmi160_task.c **** static int8_t bmi160Read(uint8_t dev_adresse, uint8_t reg_adresse, uint8_t *data, uint16_t length){
  37:bmi160_task.c ****     
  38:bmi160_task.c ****     Cy_SCB_I2C_MasterSendStart(I2C_BMI_HW,dev_adresse,CY_SCB_I2C_WRITE_XFER,0,&I2C_BMI_context);
  39:bmi160_task.c ****     Cy_SCB_I2C_MasterWriteByte(I2C_BMI_HW,reg_adresse,0,&I2C_BMI_context);
  40:bmi160_task.c ****     Cy_SCB_I2C_MasterSendReStart(I2C_BMI_HW,dev_adresse,CY_SCB_I2C_READ_XFER,0,&I2C_BMI_context);
  41:bmi160_task.c ****     for(int i =0; i<length-1; i++)
  42:bmi160_task.c ****     {
  43:bmi160_task.c ****         Cy_SCB_I2C_MasterReadByte(I2C_BMI_HW,CY_SCB_I2C_ACK,&data[i],0,&I2C_BMI_context);
  44:bmi160_task.c ****     }
  45:bmi160_task.c ****     Cy_SCB_I2C_MasterReadByte(I2C_BMI_HW,CY_SCB_I2C_NAK,&data[length-1],0,&I2C_BMI_context);
  46:bmi160_task.c ****     
  47:bmi160_task.c ****     Cy_SCB_I2C_MasterSendStop(I2C_BMI_HW,0,&I2C_BMI_context);
  48:bmi160_task.c ****     
  49:bmi160_task.c ****     return 0 ;
  50:bmi160_task.c ****       
  51:bmi160_task.c **** }
  52:bmi160_task.c **** 
  53:bmi160_task.c **** 
  54:bmi160_task.c **** static void bmi160Config ()
  55:bmi160_task.c **** {
  28              		.loc 1 55 0
  29              		.cfi_startproc
  30              		@ args = 0, pretend = 0, frame = 0
  31              		@ frame_needed = 0, uses_anonymous_args = 0
  32 0000 10B5     		push	{r4, lr}
  33              		.cfi_def_cfa_offset 8
  34              		.cfi_offset 4, -8
  35              		.cfi_offset 14, -4
  56:bmi160_task.c ****     CyDelay(100); //guess
  36              		.loc 1 56 0
  37 0002 6420     		movs	r0, #100
  38 0004 FFF7FEFF 		bl	Cy_SysLib_Delay
  39              	.LVL0:
  57:bmi160_task.c ****     /*BMI160*/
  58:bmi160_task.c **** 
  59:bmi160_task.c ****     bmi160Sensor.read       = (bmi160_read_fptr_t)bmi160Read;
  40              		.loc 1 59 0
  41 0008 104C     		ldr	r4, .L3
  42 000a 114B     		ldr	r3, .L3+4
  43 000c E361     		str	r3, [r4, #28]
  60:bmi160_task.c ****     bmi160Sensor.write      = (bmi160_write_fptr_t)bmi160Write;
  44              		.loc 1 60 0
  45 000e 114B     		ldr	r3, .L3+8
  46 0010 2362     		str	r3, [r4, #32]
  61:bmi160_task.c ****     bmi160Sensor.delay_ms   = (bmi160_delay_fptr_t)CyDelay;
  47              		.loc 1 61 0
  48 0012 114B     		ldr	r3, .L3+12
  49 0014 6362     		str	r3, [r4, #36]
  62:bmi160_task.c ****     bmi160Sensor.id         = BMI160_I2C_ADDR; //I2C device address
  50              		.loc 1 62 0
  51 0016 6823     		movs	r3, #104
  52 0018 6370     		strb	r3, [r4, #1]
ARM GAS  C:\Users\marie\AppData\Local\Temp\ccX7Sgzy.s 			page 3


  63:bmi160_task.c ****     
  64:bmi160_task.c ****     bmi160_init(&bmi160Sensor);// initialize the device
  53              		.loc 1 64 0
  54 001a 2046     		mov	r0, r4
  55 001c FFF7FEFF 		bl	bmi160_init
  56              	.LVL1:
  65:bmi160_task.c ****     
  66:bmi160_task.c ****     bmi160Sensor.gyro_cfg.odr = BMI160_GYRO_ODR_800HZ;
  57              		.loc 1 66 0
  58 0020 0B23     		movs	r3, #11
  59 0022 6373     		strb	r3, [r4, #13]
  67:bmi160_task.c ****     bmi160Sensor.gyro_cfg.range = BMI160_GYRO_RANGE_125_DPS;
  60              		.loc 1 67 0
  61 0024 0423     		movs	r3, #4
  62 0026 A373     		strb	r3, [r4, #14]
  68:bmi160_task.c ****     bmi160Sensor.gyro_cfg.bw = BMI160_GYRO_BW_OSR4_MODE;
  63              		.loc 1 68 0
  64 0028 0023     		movs	r3, #0
  65 002a E373     		strb	r3, [r4, #15]
  69:bmi160_task.c ****     
  70:bmi160_task.c ****     bmi160Sensor.gyro_cfg.power = BMI160_GYRO_NORMAL_MODE;
  66              		.loc 1 70 0
  67 002c 1522     		movs	r2, #21
  68 002e 2273     		strb	r2, [r4, #12]
  71:bmi160_task.c ****     
  72:bmi160_task.c ****     bmi160Sensor.accel_cfg.odr = BMI160_ACCEL_ODR_1600HZ;
  69              		.loc 1 72 0
  70 0030 0C22     		movs	r2, #12
  71 0032 6271     		strb	r2, [r4, #5]
  73:bmi160_task.c ****     bmi160Sensor.accel_cfg.range = BMI160_ACCEL_RANGE_2G;
  72              		.loc 1 73 0
  73 0034 0322     		movs	r2, #3
  74 0036 A271     		strb	r2, [r4, #6]
  74:bmi160_task.c ****     bmi160Sensor.accel_cfg.bw = BMI160_ACCEL_BW_OSR4_AVG1;
  75              		.loc 1 74 0
  76 0038 E371     		strb	r3, [r4, #7]
  75:bmi160_task.c ****     bmi160Sensor.accel_cfg.power = BMI160_ACCEL_NORMAL_MODE;
  77              		.loc 1 75 0
  78 003a 1123     		movs	r3, #17
  79 003c 2371     		strb	r3, [r4, #4]
  76:bmi160_task.c ****     
  77:bmi160_task.c ****     /*set the sensor configuration*/
  78:bmi160_task.c ****     bmi160_set_sens_conf(&bmi160Sensor);
  80              		.loc 1 78 0
  81 003e 2046     		mov	r0, r4
  82 0040 FFF7FEFF 		bl	bmi160_set_sens_conf
  83              	.LVL2:
  79:bmi160_task.c ****     bmi160Sensor.delay_ms(50);
  84              		.loc 1 79 0
  85 0044 636A     		ldr	r3, [r4, #36]
  86 0046 3220     		movs	r0, #50
  87 0048 9847     		blx	r3
  88              	.LVL3:
  89 004a 10BD     		pop	{r4, pc}
  90              	.L4:
  91              		.align	2
  92              	.L3:
ARM GAS  C:\Users\marie\AppData\Local\Temp\ccX7Sgzy.s 			page 4


  93 004c 00000000 		.word	.LANCHOR0
  94 0050 00000000 		.word	bmi160Read
  95 0054 00000000 		.word	bmi160Write
  96 0058 00000000 		.word	Cy_SysLib_Delay
  97              		.cfi_endproc
  98              	.LFE662:
  99              		.size	bmi160Config, .-bmi160Config
 100              		.section	.text.bmi160Write,"ax",%progbits
 101              		.align	2
 102              		.thumb
 103              		.thumb_func
 104              		.type	bmi160Write, %function
 105              	bmi160Write:
 106              	.LFB660:
  23:bmi160_task.c ****     
 107              		.loc 1 23 0
 108              		.cfi_startproc
 109              		@ args = 0, pretend = 0, frame = 0
 110              		@ frame_needed = 0, uses_anonymous_args = 0
 111              	.LVL4:
 112 0000 2DE9F041 		push	{r4, r5, r6, r7, r8, lr}
 113              		.cfi_def_cfa_offset 24
 114              		.cfi_offset 4, -24
 115              		.cfi_offset 5, -20
 116              		.cfi_offset 6, -16
 117              		.cfi_offset 7, -12
 118              		.cfi_offset 8, -8
 119              		.cfi_offset 14, -4
 120 0004 82B0     		sub	sp, sp, #8
 121              		.cfi_def_cfa_offset 32
 122 0006 8846     		mov	r8, r1
 123 0008 1646     		mov	r6, r2
 124 000a 1D46     		mov	r5, r3
  25:bmi160_task.c ****     Cy_SCB_I2C_MasterWriteByte(I2C_BMI_HW,reg_adresse,0,&I2C_BMI_context);
 125              		.loc 1 25 0
 126 000c 114C     		ldr	r4, .L9
 127 000e 124F     		ldr	r7, .L9+4
 128 0010 0097     		str	r7, [sp]
 129 0012 0023     		movs	r3, #0
 130              	.LVL5:
 131 0014 1A46     		mov	r2, r3
 132              	.LVL6:
 133 0016 0146     		mov	r1, r0
 134              	.LVL7:
 135 0018 2046     		mov	r0, r4
 136              	.LVL8:
 137 001a FFF7FEFF 		bl	Cy_SCB_I2C_MasterSendStart
 138              	.LVL9:
  26:bmi160_task.c ****     for(int i = 0; i<length; i++)
 139              		.loc 1 26 0
 140 001e 3B46     		mov	r3, r7
 141 0020 0022     		movs	r2, #0
 142 0022 4146     		mov	r1, r8
 143 0024 2046     		mov	r0, r4
 144 0026 FFF7FEFF 		bl	Cy_SCB_I2C_MasterWriteByte
 145              	.LVL10:
 146              	.LBB2:
ARM GAS  C:\Users\marie\AppData\Local\Temp\ccX7Sgzy.s 			page 5


  27:bmi160_task.c ****     {
 147              		.loc 1 27 0
 148 002a 0024     		movs	r4, #0
 149 002c 06E0     		b	.L6
 150              	.LVL11:
 151              	.L7:
  29:bmi160_task.c ****     }
 152              		.loc 1 29 0 discriminator 3
 153 002e 0A4B     		ldr	r3, .L9+4
 154 0030 0022     		movs	r2, #0
 155 0032 315D     		ldrb	r1, [r6, r4]	@ zero_extendqisi2
 156 0034 0748     		ldr	r0, .L9
 157 0036 FFF7FEFF 		bl	Cy_SCB_I2C_MasterWriteByte
 158              	.LVL12:
  27:bmi160_task.c ****     {
 159              		.loc 1 27 0 discriminator 3
 160 003a 0134     		adds	r4, r4, #1
 161              	.LVL13:
 162              	.L6:
  27:bmi160_task.c ****     {
 163              		.loc 1 27 0 is_stmt 0 discriminator 1
 164 003c AC42     		cmp	r4, r5
 165 003e F6DB     		blt	.L7
 166              	.LBE2:
  32:bmi160_task.c ****     return 0;
 167              		.loc 1 32 0 is_stmt 1
 168 0040 054A     		ldr	r2, .L9+4
 169 0042 0021     		movs	r1, #0
 170 0044 0348     		ldr	r0, .L9
 171 0046 FFF7FEFF 		bl	Cy_SCB_I2C_MasterSendStop
 172              	.LVL14:
  34:bmi160_task.c **** 
 173              		.loc 1 34 0
 174 004a 0020     		movs	r0, #0
 175 004c 02B0     		add	sp, sp, #8
 176              		.cfi_def_cfa_offset 24
 177              		@ sp needed
 178 004e BDE8F081 		pop	{r4, r5, r6, r7, r8, pc}
 179              	.LVL15:
 180              	.L10:
 181 0052 00BF     		.align	2
 182              	.L9:
 183 0054 00006440 		.word	1080295424
 184 0058 00000000 		.word	I2C_BMI_context
 185              		.cfi_endproc
 186              	.LFE660:
 187              		.size	bmi160Write, .-bmi160Write
 188              		.section	.text.bmi160Read,"ax",%progbits
 189              		.align	2
 190              		.thumb
 191              		.thumb_func
 192              		.type	bmi160Read, %function
 193              	bmi160Read:
 194              	.LFB661:
  36:bmi160_task.c ****     
 195              		.loc 1 36 0
 196              		.cfi_startproc
ARM GAS  C:\Users\marie\AppData\Local\Temp\ccX7Sgzy.s 			page 6


 197              		@ args = 0, pretend = 0, frame = 0
 198              		@ frame_needed = 0, uses_anonymous_args = 0
 199              	.LVL16:
 200 0000 2DE9F043 		push	{r4, r5, r6, r7, r8, r9, lr}
 201              		.cfi_def_cfa_offset 28
 202              		.cfi_offset 4, -28
 203              		.cfi_offset 5, -24
 204              		.cfi_offset 6, -20
 205              		.cfi_offset 7, -16
 206              		.cfi_offset 8, -12
 207              		.cfi_offset 9, -8
 208              		.cfi_offset 14, -4
 209 0004 83B0     		sub	sp, sp, #12
 210              		.cfi_def_cfa_offset 40
 211 0006 8046     		mov	r8, r0
 212 0008 8946     		mov	r9, r1
 213 000a 1646     		mov	r6, r2
 214 000c 1D46     		mov	r5, r3
  38:bmi160_task.c ****     Cy_SCB_I2C_MasterWriteByte(I2C_BMI_HW,reg_adresse,0,&I2C_BMI_context);
 215              		.loc 1 38 0
 216 000e 1B4C     		ldr	r4, .L15
 217 0010 1B4F     		ldr	r7, .L15+4
 218 0012 0097     		str	r7, [sp]
 219 0014 0023     		movs	r3, #0
 220              	.LVL17:
 221 0016 1A46     		mov	r2, r3
 222              	.LVL18:
 223 0018 0146     		mov	r1, r0
 224              	.LVL19:
 225 001a 2046     		mov	r0, r4
 226              	.LVL20:
 227 001c FFF7FEFF 		bl	Cy_SCB_I2C_MasterSendStart
 228              	.LVL21:
  39:bmi160_task.c ****     Cy_SCB_I2C_MasterSendReStart(I2C_BMI_HW,dev_adresse,CY_SCB_I2C_READ_XFER,0,&I2C_BMI_context);
 229              		.loc 1 39 0
 230 0020 3B46     		mov	r3, r7
 231 0022 0022     		movs	r2, #0
 232 0024 4946     		mov	r1, r9
 233 0026 2046     		mov	r0, r4
 234 0028 FFF7FEFF 		bl	Cy_SCB_I2C_MasterWriteByte
 235              	.LVL22:
  40:bmi160_task.c ****     for(int i =0; i<length-1; i++)
 236              		.loc 1 40 0
 237 002c 0097     		str	r7, [sp]
 238 002e 0023     		movs	r3, #0
 239 0030 0122     		movs	r2, #1
 240 0032 4146     		mov	r1, r8
 241 0034 2046     		mov	r0, r4
 242 0036 FFF7FEFF 		bl	Cy_SCB_I2C_MasterSendReStart
 243              	.LVL23:
 244              	.LBB3:
  41:bmi160_task.c ****     {
 245              		.loc 1 41 0
 246 003a 0024     		movs	r4, #0
 247 003c 08E0     		b	.L12
 248              	.LVL24:
 249              	.L13:
ARM GAS  C:\Users\marie\AppData\Local\Temp\ccX7Sgzy.s 			page 7


  43:bmi160_task.c ****     }
 250              		.loc 1 43 0 discriminator 3
 251 003e 104B     		ldr	r3, .L15+4
 252 0040 0093     		str	r3, [sp]
 253 0042 0023     		movs	r3, #0
 254 0044 3219     		adds	r2, r6, r4
 255 0046 1946     		mov	r1, r3
 256 0048 0C48     		ldr	r0, .L15
 257 004a FFF7FEFF 		bl	Cy_SCB_I2C_MasterReadByte
 258              	.LVL25:
  41:bmi160_task.c ****     {
 259              		.loc 1 41 0 discriminator 3
 260 004e 0134     		adds	r4, r4, #1
 261              	.LVL26:
 262              	.L12:
  41:bmi160_task.c ****     {
 263              		.loc 1 41 0 is_stmt 0 discriminator 1
 264 0050 6B1E     		subs	r3, r5, #1
 265 0052 9C42     		cmp	r4, r3
 266 0054 F3DB     		blt	.L13
 267              	.LBE3:
  45:bmi160_task.c ****     
 268              		.loc 1 45 0 is_stmt 1
 269 0056 1A46     		mov	r2, r3
 270 0058 084C     		ldr	r4, .L15
 271              	.LVL27:
 272 005a 094D     		ldr	r5, .L15+4
 273 005c 0095     		str	r5, [sp]
 274 005e 0023     		movs	r3, #0
 275 0060 3244     		add	r2, r2, r6
 276 0062 0121     		movs	r1, #1
 277 0064 2046     		mov	r0, r4
 278 0066 FFF7FEFF 		bl	Cy_SCB_I2C_MasterReadByte
 279              	.LVL28:
  47:bmi160_task.c ****     
 280              		.loc 1 47 0
 281 006a 2A46     		mov	r2, r5
 282 006c 0021     		movs	r1, #0
 283 006e 2046     		mov	r0, r4
 284 0070 FFF7FEFF 		bl	Cy_SCB_I2C_MasterSendStop
 285              	.LVL29:
  51:bmi160_task.c **** 
 286              		.loc 1 51 0
 287 0074 0020     		movs	r0, #0
 288 0076 03B0     		add	sp, sp, #12
 289              		.cfi_def_cfa_offset 28
 290              		@ sp needed
 291 0078 BDE8F083 		pop	{r4, r5, r6, r7, r8, r9, pc}
 292              	.LVL30:
 293              	.L16:
 294              		.align	2
 295              	.L15:
 296 007c 00006440 		.word	1080295424
 297 0080 00000000 		.word	I2C_BMI_context
 298              		.cfi_endproc
 299              	.LFE661:
 300              		.size	bmi160Read, .-bmi160Read
ARM GAS  C:\Users\marie\AppData\Local\Temp\ccX7Sgzy.s 			page 8


 301              		.section	.text.get_accData,"ax",%progbits
 302              		.align	2
 303              		.global	get_accData
 304              		.thumb
 305              		.thumb_func
 306              		.type	get_accData, %function
 307              	get_accData:
 308              	.LFB663:
  80:bmi160_task.c ****     
  81:bmi160_task.c **** }
  82:bmi160_task.c **** 
  83:bmi160_task.c **** 
  84:bmi160_task.c **** 
  85:bmi160_task.c **** void get_accData ()
  86:bmi160_task.c **** {
 309              		.loc 1 86 0
 310              		.cfi_startproc
 311              		@ args = 0, pretend = 0, frame = 0
 312              		@ frame_needed = 0, uses_anonymous_args = 0
 313 0000 10B5     		push	{r4, lr}
 314              		.cfi_def_cfa_offset 8
 315              		.cfi_offset 4, -8
 316              		.cfi_offset 14, -4
  87:bmi160_task.c ****     
  88:bmi160_task.c ****     //(void)arg;
  89:bmi160_task.c ****     
  90:bmi160_task.c ****     //I2C_BMI_Start();
  91:bmi160_task.c ****     //bmi160Config();
  92:bmi160_task.c ****     
  93:bmi160_task.c ****     
  94:bmi160_task.c ****         
  95:bmi160_task.c ****         bmi160_get_int_status(BMI160_INT_STATUS_0,&bmi160Status,&bmi160Sensor);
 317              		.loc 1 95 0
 318 0002 0B4C     		ldr	r4, .L20
 319 0004 0B4A     		ldr	r2, .L20+4
 320 0006 2146     		mov	r1, r4
 321 0008 0120     		movs	r0, #1
 322 000a FFF7FEFF 		bl	bmi160_get_int_status
 323              	.LVL31:
  96:bmi160_task.c ****         
  97:bmi160_task.c ****         
  98:bmi160_task.c ****          if(bmi160Status.bit.anym==1)
 324              		.loc 1 98 0
 325 000e 2378     		ldrb	r3, [r4]	@ zero_extendqisi2
 326 0010 13F0040F 		tst	r3, #4
 327 0014 0AD0     		beq	.L17
  99:bmi160_task.c ****         {
 100:bmi160_task.c ****             printf("Interruption!\r\n");
 328              		.loc 1 100 0
 329 0016 0848     		ldr	r0, .L20+8
 330 0018 FFF7FEFF 		bl	puts
 331              	.LVL32:
 101:bmi160_task.c ****             bmi160Status.bit.anym=0;
 332              		.loc 1 101 0
 333 001c 2278     		ldrb	r2, [r4]	@ zero_extendqisi2
 334 001e 6FF38202 		bfc	r2, #2, #1
 335 0022 2270     		strb	r2, [r4]
ARM GAS  C:\Users\marie\AppData\Local\Temp\ccX7Sgzy.s 			page 9


 102:bmi160_task.c ****             CyDelay(5000);
 336              		.loc 1 102 0
 337 0024 41F28830 		movw	r0, #5000
 338 0028 FFF7FEFF 		bl	Cy_SysLib_Delay
 339              	.LVL33:
 340              	.L17:
 341 002c 10BD     		pop	{r4, pc}
 342              	.L21:
 343 002e 00BF     		.align	2
 344              	.L20:
 345 0030 00000000 		.word	bmi160Status
 346 0034 00000000 		.word	.LANCHOR0
 347 0038 00000000 		.word	.LC0
 348              		.cfi_endproc
 349              	.LFE663:
 350              		.size	get_accData, .-get_accData
 351              		.section	.text.anyMotionInt_set,"ax",%progbits
 352              		.align	2
 353              		.global	anyMotionInt_set
 354              		.thumb
 355              		.thumb_func
 356              		.type	anyMotionInt_set, %function
 357              	anyMotionInt_set:
 358              	.LFB664:
 103:bmi160_task.c ****             
 104:bmi160_task.c ****             
 105:bmi160_task.c ****         }
 106:bmi160_task.c ****         
 107:bmi160_task.c ****         
 108:bmi160_task.c ****  
 109:bmi160_task.c **** }
 110:bmi160_task.c **** 
 111:bmi160_task.c **** void anyMotionInt_set()
 112:bmi160_task.c **** {
 359              		.loc 1 112 0
 360              		.cfi_startproc
 361              		@ args = 0, pretend = 0, frame = 16
 362              		@ frame_needed = 0, uses_anonymous_args = 0
 363 0000 00B5     		push	{lr}
 364              		.cfi_def_cfa_offset 4
 365              		.cfi_offset 14, -4
 366 0002 85B0     		sub	sp, sp, #20
 367              		.cfi_def_cfa_offset 24
 368              	.LVL34:
 113:bmi160_task.c ****  
 114:bmi160_task.c ****     /*Structure qui va contenir la configuration de l'interruption*/
 115:bmi160_task.c ****     struct bmi160_int_settg int_config;
 116:bmi160_task.c ****     /*Variable qui contient le retour de BMI160 APIs*/
 117:bmi160_task.c ****     uint8_t resultat = 0;
 118:bmi160_task.c ****     
 119:bmi160_task.c ****     int_config.int_channel = BMI160_INT_CHANNEL_1;
 369              		.loc 1 119 0
 370 0004 0123     		movs	r3, #1
 371 0006 8DF80430 		strb	r3, [sp, #4]
 120:bmi160_task.c ****     int_config.int_type = BMI160_ACC_ANY_MOTION_INT;
 372              		.loc 1 120 0
 373 000a 0022     		movs	r2, #0
ARM GAS  C:\Users\marie\AppData\Local\Temp\ccX7Sgzy.s 			page 10


 374 000c 8DF80520 		strb	r2, [sp, #5]
 121:bmi160_task.c ****     
 122:bmi160_task.c ****     /*Interrupt pin configuration*/
 123:bmi160_task.c ****     
 124:bmi160_task.c ****     int_config.int_pin_settg.output_en=BMI160_ENABLE;
 375              		.loc 1 124 0
 376 0010 9DF80630 		ldrb	r3, [sp, #6]	@ zero_extendqisi2
 125:bmi160_task.c ****     int_config.int_pin_settg.output_mode=BMI160_DISABLE;
 377              		.loc 1 125 0
 378 0014 43F00103 		orr	r3, r3, #1
 126:bmi160_task.c ****     int_config.int_pin_settg.output_type=BMI160_ENABLE;
 379              		.loc 1 126 0
 380 0018 03F0FD03 		and	r3, r3, #253
 127:bmi160_task.c ****     int_config.int_pin_settg.edge_ctrl=BMI160_ENABLE;
 128:bmi160_task.c ****     int_config.int_pin_settg.input_en = BMI160_DISABLE;
 381              		.loc 1 128 0
 382 001c 43F00C03 		orr	r3, r3, #12
 383 0020 62F30413 		bfi	r3, r2, #4, #1
 384 0024 8DF80630 		strb	r3, [sp, #6]
 129:bmi160_task.c ****     int_config.int_pin_settg.latch_dur=BMI160_LATCH_DUR_2_56_SEC;
 385              		.loc 1 129 0
 386 0028 BDF80630 		ldrh	r3, [sp, #6]
 387 002c 0E22     		movs	r2, #14
 388 002e 62F34813 		bfi	r3, r2, #5, #4
 389 0032 ADF80630 		strh	r3, [sp, #6]	@ movhi
 130:bmi160_task.c ****     
 131:bmi160_task.c ****     /*Interrupt Type configuration*/
 132:bmi160_task.c **** 
 133:bmi160_task.c ****     int_config.int_type_cfg.acc_any_motion_int.anymotion_en= BMI160_ENABLE;
 390              		.loc 1 133 0
 391 0036 9DF80830 		ldrb	r3, [sp, #8]	@ zero_extendqisi2
 134:bmi160_task.c ****     int_config.int_type_cfg.acc_any_motion_int.anymotion_x=BMI160_ENABLE;
 135:bmi160_task.c ****     int_config.int_type_cfg.acc_any_motion_int.anymotion_y=BMI160_ENABLE;
 136:bmi160_task.c ****     int_config.int_type_cfg.acc_any_motion_int.anymotion_z=BMI160_ENABLE;
 137:bmi160_task.c ****     int_config.int_type_cfg.acc_any_motion_int.anymotion_dur=3;
 392              		.loc 1 137 0
 393 003a 43F03F03 		orr	r3, r3, #63
 394 003e 8DF80830 		strb	r3, [sp, #8]
 138:bmi160_task.c ****     
 139:bmi160_task.c ****     int_config.int_type_cfg.acc_any_motion_int.anymotion_thr=10;
 395              		.loc 1 139 0
 396 0042 0A23     		movs	r3, #10
 397 0044 8DF80930 		strb	r3, [sp, #9]
 140:bmi160_task.c ****     
 141:bmi160_task.c ****     resultat=bmi160_set_int_config(&int_config,&bmi160Sensor);
 398              		.loc 1 141 0
 399 0048 0349     		ldr	r1, .L24
 400 004a 01A8     		add	r0, sp, #4
 401 004c FFF7FEFF 		bl	bmi160_set_int_config
 402              	.LVL35:
 142:bmi160_task.c ****     
 143:bmi160_task.c ****    
 144:bmi160_task.c ****     
 145:bmi160_task.c ****     
 146:bmi160_task.c **** }
 403              		.loc 1 146 0
 404 0050 05B0     		add	sp, sp, #20
ARM GAS  C:\Users\marie\AppData\Local\Temp\ccX7Sgzy.s 			page 11


 405              		.cfi_def_cfa_offset 4
 406              		@ sp needed
 407 0052 5DF804FB 		ldr	pc, [sp], #4
 408              	.L25:
 409 0056 00BF     		.align	2
 410              	.L24:
 411 0058 00000000 		.word	.LANCHOR0
 412              		.cfi_endproc
 413              	.LFE664:
 414              		.size	anyMotionInt_set, .-anyMotionInt_set
 415              		.section	.text.Task_Motion,"ax",%progbits
 416              		.align	2
 417              		.global	Task_Motion
 418              		.thumb
 419              		.thumb_func
 420              		.type	Task_Motion, %function
 421              	Task_Motion:
 422              	.LFB665:
 147:bmi160_task.c **** 
 148:bmi160_task.c **** void Task_Motion()
 149:bmi160_task.c **** {
 423              		.loc 1 149 0
 424              		.cfi_startproc
 425              		@ args = 0, pretend = 0, frame = 0
 426              		@ frame_needed = 0, uses_anonymous_args = 0
 427 0000 08B5     		push	{r3, lr}
 428              		.cfi_def_cfa_offset 8
 429              		.cfi_offset 3, -8
 430              		.cfi_offset 14, -4
 150:bmi160_task.c ****        
 151:bmi160_task.c **** 
 152:bmi160_task.c ****     I2C_BMI_Start();
 431              		.loc 1 152 0
 432 0002 FFF7FEFF 		bl	I2C_BMI_Start
 433              	.LVL36:
 153:bmi160_task.c ****     bmi160Config();
 434              		.loc 1 153 0
 435 0006 FFF7FEFF 		bl	bmi160Config
 436              	.LVL37:
 154:bmi160_task.c ****     anyMotionInt_set();
 437              		.loc 1 154 0
 438 000a FFF7FEFF 		bl	anyMotionInt_set
 439              	.LVL38:
 440 000e 08BD     		pop	{r3, pc}
 441              		.cfi_endproc
 442              	.LFE665:
 443              		.size	Task_Motion, .-Task_Motion
 444              		.comm	bmi160Status,4,4
 445              		.section	.rodata.str1.4,"aMS",%progbits,1
 446              		.align	2
 447              	.LC0:
 448 0000 496E7465 		.ascii	"Interruption!\015\000"
 448      72727570 
 448      74696F6E 
 448      210D00
 449              		.bss
 450              		.align	2
ARM GAS  C:\Users\marie\AppData\Local\Temp\ccX7Sgzy.s 			page 12


 451              		.set	.LANCHOR0,. + 0
 452              		.type	bmi160Sensor, %object
 453              		.size	bmi160Sensor, 44
 454              	bmi160Sensor:
 455 0000 00000000 		.space	44
 455      00000000 
 455      00000000 
 455      00000000 
 455      00000000 
 456              		.text
 457              	.Letext0:
 458              		.file 2 "c:\\program files (x86)\\cypress\\psoc creator\\4.4\\psoc creator\\import\\gnu\\arm\\5.4.
 459              		.file 3 "c:\\program files (x86)\\cypress\\psoc creator\\4.4\\psoc creator\\import\\gnu\\arm\\5.4.
 460              		.file 4 "Generated_Source\\PSoC6\\pdl\\devices/psoc6/include/ip/cyip_scb.h"
 461              		.file 5 "Generated_Source\\PSoC6\\pdl\\devices/psoc6/include/psoc6_01_config.h"
 462              		.file 6 "Generated_Source\\PSoC6\\pdl\\drivers/peripheral/device/cy_device.h"
 463              		.file 7 "Generated_Source\\PSoC6\\pdl\\drivers/peripheral/syslib/cy_syslib.h"
 464              		.file 8 "Generated_Source\\PSoC6\\pdl\\drivers/peripheral/scb/cy_scb_i2c.h"
 465              		.file 9 "Generated_Source\\PSoC6\\pdl\\drivers/peripheral/scb/cy_scb_spi.h"
 466              		.file 10 "Generated_Source\\PSoC6\\pdl\\drivers/peripheral/scb/cy_scb_uart.h"
 467              		.file 11 "Generated_Source\\PSoC6\\pdl\\drivers/peripheral/tcpwm/cy_tcpwm_counter.h"
 468              		.file 12 ".\\BMI160_driver-master/bmi160_defs.h"
 469              		.file 13 "bmi160_task.h"
 470              		.file 14 ".\\CMSIS\\Core\\Include/core_cm4.h"
 471              		.file 15 "Generated_Source\\PSoC6/CY_EINK_SPIM.h"
 472              		.file 16 "Generated_Source\\PSoC6/CY_EINK_Timer.h"
 473              		.file 17 "Generated_Source\\PSoC6/I2C_BMI.h"
 474              		.file 18 "Generated_Source\\PSoC6/I2C_MAX.h"
 475              		.file 19 "Generated_Source\\PSoC6/UART_1.h"
 476              		.file 20 ".\\BMI160_driver-master/bmi160.h"
 477              		.file 21 "<built-in>"