ARM GAS  C:\Users\fatim\AppData\Local\Temp\cc5RasCs.s 			page 1


   1              		.syntax unified
   2              		.cpu cortex-m4
   3              		.eabi_attribute 27, 1
   4              		.fpu fpv4-sp-d16
   5              		.eabi_attribute 20, 1
   6              		.eabi_attribute 21, 1
   7              		.eabi_attribute 23, 3
   8              		.eabi_attribute 24, 1
   9              		.eabi_attribute 25, 1
  10              		.eabi_attribute 26, 1
  11              		.eabi_attribute 30, 1
  12              		.eabi_attribute 34, 1
  13              		.eabi_attribute 18, 4
  14              		.thumb
  15              		.syntax unified
  16              		.file	"MAX30102.c"
  17              		.text
  18              	.Ltext0:
  19              		.cfi_sections	.debug_frame
  20              		.section	.text.readRegistre,"ax",%progbits
  21              		.align	2
  22              		.global	readRegistre
  23              		.thumb
  24              		.thumb_func
  25              		.type	readRegistre, %function
  26              	readRegistre:
  27              	.LFB656:
  28              		.file 1 "MAX30102.c"
   1:MAX30102.c    **** /* ========================================
   2:MAX30102.c    ****  *
   3:MAX30102.c    ****  * Copyright EQUIPE 5, 2021
   4:MAX30102.c    ****  * All Rights Reserved
   5:MAX30102.c    ****  * UNPUBLISHED, LICENSED SOFTWARE.
   6:MAX30102.c    ****  *
   7:MAX30102.c    ****  * CONFIDENTIAL AND PROPRIETARY INFORMATION
   8:MAX30102.c    ****  * WHICH IS THE PROPERTY OF EQUIPE 5.
   9:MAX30102.c    ****  *
  10:MAX30102.c    ****  * ========================================
  11:MAX30102.c    **** */
  12:MAX30102.c    **** #include "MAX30102.h"
  13:MAX30102.c    **** #include "project.h"
  14:MAX30102.c    **** 
  15:MAX30102.c    **** 
  16:MAX30102.c    **** 
  17:MAX30102.c    **** void MAX30102_config()
  18:MAX30102.c    **** {
  19:MAX30102.c    **** CyDelay(100);    
  20:MAX30102.c    ****     
  21:MAX30102.c    **** writeRegistre(REG_INTR_ENABLE_1, 0xd0); //enable ...
  22:MAX30102.c    ****         
  23:MAX30102.c    **** writeRegistre(REG_INTR_ENABLE_2, 0x00);
  24:MAX30102.c    **** 
  25:MAX30102.c    **** writeRegistre(REG_FIFO_WR,0x00);
  26:MAX30102.c    **** 
  27:MAX30102.c    **** writeRegistre(REG_OVFLOW_COUNTER, 0x00);
  28:MAX30102.c    **** 
  29:MAX30102.c    **** writeRegistre(REG_FIFO_RD,0x00);
ARM GAS  C:\Users\fatim\AppData\Local\Temp\cc5RasCs.s 			page 2


  30:MAX30102.c    ****         
  31:MAX30102.c    **** writeRegistre(REG_FIFO_CONFIG, 0x1f); //no smp averaging, fifo rollover on, fifo fill = 15 empty da
  32:MAX30102.c    ****         
  33:MAX30102.c    **** writeRegistre(REG_MODE_CONFIG, 0x03); //SPO2 Mode (Red and IR)
  34:MAX30102.c    ****        
  35:MAX30102.c    **** writeRegistre(REG_SPO2_CONFIG, 0x29); //ADC Range control=4096nA, Sample rate=200Hz, Pulse width =1
  36:MAX30102.c    **** 
  37:MAX30102.c    **** writeRegistre(REG_LED_AMP_1, 0x1f); //6.2 mA
  38:MAX30102.c    **** 
  39:MAX30102.c    **** writeRegistre(REG_LED_AMP_2, 0x1f); //6.2 mA
  40:MAX30102.c    **** 
  41:MAX30102.c    **** 
  42:MAX30102.c    **** 
  43:MAX30102.c    **** }    
  44:MAX30102.c    **** uint8_t readRegistre (uint8_t adresse){
  29              		.loc 1 44 0
  30              		.cfi_startproc
  31              		@ args = 0, pretend = 0, frame = 8
  32              		@ frame_needed = 0, uses_anonymous_args = 0
  33              	.LVL0:
  34 0000 10B5     		push	{r4, lr}
  35              		.cfi_def_cfa_offset 8
  36              		.cfi_offset 4, -8
  37              		.cfi_offset 14, -4
  38 0002 84B0     		sub	sp, sp, #16
  39              		.cfi_def_cfa_offset 24
  40 0004 0446     		mov	r4, r0
  45:MAX30102.c    ****     cy_en_scb_i2c_status_t status;
  46:MAX30102.c    ****     uint8_t regValue = 0;
  41              		.loc 1 46 0
  42 0006 0022     		movs	r2, #0
  43 0008 8DF80F20 		strb	r2, [sp, #15]
  44              	.LVL1:
  45              	.LBB32:
  46              	.LBB33:
  47              		.file 2 "Generated_Source\\PSoC6/I2C_MAX.h"
   1:Generated_Source\PSoC6/I2C_MAX.h **** /***************************************************************************//**
   2:Generated_Source\PSoC6/I2C_MAX.h **** * \file I2C_MAX.c
   3:Generated_Source\PSoC6/I2C_MAX.h **** * \version 2.0
   4:Generated_Source\PSoC6/I2C_MAX.h **** *
   5:Generated_Source\PSoC6/I2C_MAX.h **** *  This file provides constants and parameter values for the I2C component.
   6:Generated_Source\PSoC6/I2C_MAX.h **** *
   7:Generated_Source\PSoC6/I2C_MAX.h **** ********************************************************************************
   8:Generated_Source\PSoC6/I2C_MAX.h **** * \copyright
   9:Generated_Source\PSoC6/I2C_MAX.h **** * Copyright 2016-2017, Cypress Semiconductor Corporation. All rights reserved.
  10:Generated_Source\PSoC6/I2C_MAX.h **** * You may use this file only in accordance with the license, terms, conditions,
  11:Generated_Source\PSoC6/I2C_MAX.h **** * disclaimers, and limitations in the end user license agreement accompanying
  12:Generated_Source\PSoC6/I2C_MAX.h **** * the software package with which this file was provided.
  13:Generated_Source\PSoC6/I2C_MAX.h **** *******************************************************************************/
  14:Generated_Source\PSoC6/I2C_MAX.h **** 
  15:Generated_Source\PSoC6/I2C_MAX.h **** #if !defined(I2C_MAX_CY_SCB_I2C_PDL_H)
  16:Generated_Source\PSoC6/I2C_MAX.h **** #define I2C_MAX_CY_SCB_I2C_PDL_H
  17:Generated_Source\PSoC6/I2C_MAX.h **** 
  18:Generated_Source\PSoC6/I2C_MAX.h **** #include "cyfitter.h"
  19:Generated_Source\PSoC6/I2C_MAX.h **** #include "scb/cy_scb_i2c.h"
  20:Generated_Source\PSoC6/I2C_MAX.h **** 
  21:Generated_Source\PSoC6/I2C_MAX.h **** #if defined(__cplusplus)
ARM GAS  C:\Users\fatim\AppData\Local\Temp\cc5RasCs.s 			page 3


  22:Generated_Source\PSoC6/I2C_MAX.h **** extern "C" {
  23:Generated_Source\PSoC6/I2C_MAX.h **** #endif
  24:Generated_Source\PSoC6/I2C_MAX.h **** 
  25:Generated_Source\PSoC6/I2C_MAX.h **** /***************************************
  26:Generated_Source\PSoC6/I2C_MAX.h **** *   Initial Parameter Constants
  27:Generated_Source\PSoC6/I2C_MAX.h **** ****************************************/
  28:Generated_Source\PSoC6/I2C_MAX.h **** 
  29:Generated_Source\PSoC6/I2C_MAX.h **** #define I2C_MAX_MODE               (0x2U)
  30:Generated_Source\PSoC6/I2C_MAX.h **** #define I2C_MAX_MODE_SLAVE_MASK    (0x1U)
  31:Generated_Source\PSoC6/I2C_MAX.h **** #define I2C_MAX_MODE_MASTER_MASK   (0x2U)
  32:Generated_Source\PSoC6/I2C_MAX.h **** 
  33:Generated_Source\PSoC6/I2C_MAX.h **** #define I2C_MAX_ENABLE_SLAVE       (0UL != (I2C_MAX_MODE & I2C_MAX_MODE_SLAVE_MASK))
  34:Generated_Source\PSoC6/I2C_MAX.h **** #define I2C_MAX_ENABLE_MASTER      (0UL != (I2C_MAX_MODE & I2C_MAX_MODE_MASTER_MASK))
  35:Generated_Source\PSoC6/I2C_MAX.h **** #define I2C_MAX_MANUAL_SCL_CONTROL (0U)
  36:Generated_Source\PSoC6/I2C_MAX.h **** 
  37:Generated_Source\PSoC6/I2C_MAX.h **** 
  38:Generated_Source\PSoC6/I2C_MAX.h **** /***************************************
  39:Generated_Source\PSoC6/I2C_MAX.h **** *        Function Prototypes
  40:Generated_Source\PSoC6/I2C_MAX.h **** ***************************************/
  41:Generated_Source\PSoC6/I2C_MAX.h **** /**
  42:Generated_Source\PSoC6/I2C_MAX.h **** * \addtogroup group_general
  43:Generated_Source\PSoC6/I2C_MAX.h **** * @{
  44:Generated_Source\PSoC6/I2C_MAX.h **** */
  45:Generated_Source\PSoC6/I2C_MAX.h **** /* Component only APIs. */
  46:Generated_Source\PSoC6/I2C_MAX.h **** void I2C_MAX_Start(void);
  47:Generated_Source\PSoC6/I2C_MAX.h **** 
  48:Generated_Source\PSoC6/I2C_MAX.h **** /* Basic functions. */
  49:Generated_Source\PSoC6/I2C_MAX.h **** __STATIC_INLINE cy_en_scb_i2c_status_t I2C_MAX_Init(cy_stc_scb_i2c_config_t const *config);
  50:Generated_Source\PSoC6/I2C_MAX.h **** __STATIC_INLINE void I2C_MAX_DeInit (void);
  51:Generated_Source\PSoC6/I2C_MAX.h **** __STATIC_INLINE void I2C_MAX_Enable (void);
  52:Generated_Source\PSoC6/I2C_MAX.h **** __STATIC_INLINE void I2C_MAX_Disable(void);
  53:Generated_Source\PSoC6/I2C_MAX.h **** 
  54:Generated_Source\PSoC6/I2C_MAX.h **** /* Data rate configuration functions. */
  55:Generated_Source\PSoC6/I2C_MAX.h **** __STATIC_INLINE uint32_t I2C_MAX_SetDataRate(uint32_t dataRateHz, uint32_t scbClockHz);
  56:Generated_Source\PSoC6/I2C_MAX.h **** __STATIC_INLINE uint32_t I2C_MAX_GetDataRate(uint32_t scbClockHz);
  57:Generated_Source\PSoC6/I2C_MAX.h **** 
  58:Generated_Source\PSoC6/I2C_MAX.h **** /* Register callbacks. */
  59:Generated_Source\PSoC6/I2C_MAX.h **** __STATIC_INLINE void I2C_MAX_RegisterEventCallback(cy_cb_scb_i2c_handle_events_t callback);
  60:Generated_Source\PSoC6/I2C_MAX.h **** #if (I2C_MAX_ENABLE_SLAVE)
  61:Generated_Source\PSoC6/I2C_MAX.h **** __STATIC_INLINE void I2C_MAX_RegisterAddrCallback (cy_cb_scb_i2c_handle_addr_t callback);
  62:Generated_Source\PSoC6/I2C_MAX.h **** #endif /* (I2C_MAX_ENABLE_SLAVE) */
  63:Generated_Source\PSoC6/I2C_MAX.h **** 
  64:Generated_Source\PSoC6/I2C_MAX.h **** /* Configuration functions. */
  65:Generated_Source\PSoC6/I2C_MAX.h **** #if (I2C_MAX_ENABLE_SLAVE)
  66:Generated_Source\PSoC6/I2C_MAX.h **** __STATIC_INLINE void     I2C_MAX_SlaveSetAddress(uint8_t addr);
  67:Generated_Source\PSoC6/I2C_MAX.h **** __STATIC_INLINE uint32_t I2C_MAX_SlaveGetAddress(void);
  68:Generated_Source\PSoC6/I2C_MAX.h **** __STATIC_INLINE void     I2C_MAX_SlaveSetAddressMask(uint8_t addrMask);
  69:Generated_Source\PSoC6/I2C_MAX.h **** __STATIC_INLINE uint32_t I2C_MAX_SlaveGetAddressMask(void);
  70:Generated_Source\PSoC6/I2C_MAX.h **** #endif /* (I2C_MAX_ENABLE_SLAVE) */
  71:Generated_Source\PSoC6/I2C_MAX.h **** 
  72:Generated_Source\PSoC6/I2C_MAX.h **** #if (I2C_MAX_ENABLE_MASTER)
  73:Generated_Source\PSoC6/I2C_MAX.h **** __STATIC_INLINE void I2C_MAX_MasterSetLowPhaseDutyCycle (uint32_t clockCycles);
  74:Generated_Source\PSoC6/I2C_MAX.h **** __STATIC_INLINE void I2C_MAX_MasterSetHighPhaseDutyCycle(uint32_t clockCycles);
  75:Generated_Source\PSoC6/I2C_MAX.h **** #endif /* (I2C_MAX_ENABLE_MASTER) */
  76:Generated_Source\PSoC6/I2C_MAX.h **** 
  77:Generated_Source\PSoC6/I2C_MAX.h **** /* Bus status. */
  78:Generated_Source\PSoC6/I2C_MAX.h **** __STATIC_INLINE bool     I2C_MAX_IsBusBusy(void);
ARM GAS  C:\Users\fatim\AppData\Local\Temp\cc5RasCs.s 			page 4


  79:Generated_Source\PSoC6/I2C_MAX.h **** 
  80:Generated_Source\PSoC6/I2C_MAX.h **** /* Slave functions. */
  81:Generated_Source\PSoC6/I2C_MAX.h **** #if (I2C_MAX_ENABLE_SLAVE)
  82:Generated_Source\PSoC6/I2C_MAX.h **** __STATIC_INLINE uint32_t I2C_MAX_SlaveGetStatus(void);
  83:Generated_Source\PSoC6/I2C_MAX.h **** 
  84:Generated_Source\PSoC6/I2C_MAX.h **** __STATIC_INLINE void     I2C_MAX_SlaveConfigReadBuf(uint8_t *buffer, uint32_t size);
  85:Generated_Source\PSoC6/I2C_MAX.h **** __STATIC_INLINE void     I2C_MAX_SlaveAbortRead(void);
  86:Generated_Source\PSoC6/I2C_MAX.h **** __STATIC_INLINE uint32_t I2C_MAX_SlaveGetReadTransferCount(void);
  87:Generated_Source\PSoC6/I2C_MAX.h **** __STATIC_INLINE uint32_t I2C_MAX_SlaveClearReadStatus(void);
  88:Generated_Source\PSoC6/I2C_MAX.h **** 
  89:Generated_Source\PSoC6/I2C_MAX.h **** __STATIC_INLINE void     I2C_MAX_SlaveConfigWriteBuf(uint8_t *buffer, uint32_t size);
  90:Generated_Source\PSoC6/I2C_MAX.h **** __STATIC_INLINE void     I2C_MAX_SlaveAbortWrite(void);
  91:Generated_Source\PSoC6/I2C_MAX.h **** __STATIC_INLINE uint32_t I2C_MAX_SlaveGetWriteTransferCount(void);
  92:Generated_Source\PSoC6/I2C_MAX.h **** __STATIC_INLINE uint32_t I2C_MAX_SlaveClearWriteStatus(void);
  93:Generated_Source\PSoC6/I2C_MAX.h **** #endif /* (I2C_MAX_ENABLE_SLAVE) */
  94:Generated_Source\PSoC6/I2C_MAX.h **** 
  95:Generated_Source\PSoC6/I2C_MAX.h **** /* Master interrupt processing functions. */
  96:Generated_Source\PSoC6/I2C_MAX.h **** #if (I2C_MAX_ENABLE_MASTER)
  97:Generated_Source\PSoC6/I2C_MAX.h **** __STATIC_INLINE uint32_t I2C_MAX_MasterGetStatus(void);
  98:Generated_Source\PSoC6/I2C_MAX.h **** 
  99:Generated_Source\PSoC6/I2C_MAX.h **** __STATIC_INLINE cy_en_scb_i2c_status_t I2C_MAX_MasterRead(cy_stc_scb_i2c_master_xfer_config_t *xfer
 100:Generated_Source\PSoC6/I2C_MAX.h **** __STATIC_INLINE void I2C_MAX_MasterAbortRead(void);
 101:Generated_Source\PSoC6/I2C_MAX.h **** __STATIC_INLINE cy_en_scb_i2c_status_t I2C_MAX_MasterWrite(cy_stc_scb_i2c_master_xfer_config_t *xfe
 102:Generated_Source\PSoC6/I2C_MAX.h **** __STATIC_INLINE void I2C_MAX_MasterAbortWrite(void);
 103:Generated_Source\PSoC6/I2C_MAX.h **** __STATIC_INLINE uint32_t I2C_MAX_MasterGetTransferCount(void);
 104:Generated_Source\PSoC6/I2C_MAX.h **** 
 105:Generated_Source\PSoC6/I2C_MAX.h **** /* Master manual processing functions. */
 106:Generated_Source\PSoC6/I2C_MAX.h **** __STATIC_INLINE cy_en_scb_i2c_status_t I2C_MAX_MasterSendStart(uint32_t address, cy_en_scb_i2c_dire
 107:Generated_Source\PSoC6/I2C_MAX.h **** __STATIC_INLINE cy_en_scb_i2c_status_t I2C_MAX_MasterSendReStart(uint32_t address, cy_en_scb_i2c_di
 108:Generated_Source\PSoC6/I2C_MAX.h **** __STATIC_INLINE cy_en_scb_i2c_status_t I2C_MAX_MasterSendStop(uint32_t timeoutMs);
 109:Generated_Source\PSoC6/I2C_MAX.h **** __STATIC_INLINE cy_en_scb_i2c_status_t I2C_MAX_MasterReadByte(cy_en_scb_i2c_command_t ackNack, uint
 110:Generated_Source\PSoC6/I2C_MAX.h **** __STATIC_INLINE cy_en_scb_i2c_status_t I2C_MAX_MasterWriteByte(uint8_t byte, uint32_t timeoutMs);
 111:Generated_Source\PSoC6/I2C_MAX.h **** #endif /* (I2C_MAX_ENABLE_MASTER) */
 112:Generated_Source\PSoC6/I2C_MAX.h **** 
 113:Generated_Source\PSoC6/I2C_MAX.h **** /* Interrupt handler. */
 114:Generated_Source\PSoC6/I2C_MAX.h **** __STATIC_INLINE void I2C_MAX_Interrupt(void);
 115:Generated_Source\PSoC6/I2C_MAX.h **** /** @} group_general */
 116:Generated_Source\PSoC6/I2C_MAX.h **** 
 117:Generated_Source\PSoC6/I2C_MAX.h **** 
 118:Generated_Source\PSoC6/I2C_MAX.h **** /***************************************
 119:Generated_Source\PSoC6/I2C_MAX.h **** *    Variables with External Linkage
 120:Generated_Source\PSoC6/I2C_MAX.h **** ***************************************/
 121:Generated_Source\PSoC6/I2C_MAX.h **** /**
 122:Generated_Source\PSoC6/I2C_MAX.h **** * \addtogroup group_globals
 123:Generated_Source\PSoC6/I2C_MAX.h **** * @{
 124:Generated_Source\PSoC6/I2C_MAX.h **** */
 125:Generated_Source\PSoC6/I2C_MAX.h **** extern uint8_t I2C_MAX_initVar;
 126:Generated_Source\PSoC6/I2C_MAX.h **** extern cy_stc_scb_i2c_config_t const I2C_MAX_config;
 127:Generated_Source\PSoC6/I2C_MAX.h **** extern cy_stc_scb_i2c_context_t I2C_MAX_context;
 128:Generated_Source\PSoC6/I2C_MAX.h **** /** @} group_globals */
 129:Generated_Source\PSoC6/I2C_MAX.h **** 
 130:Generated_Source\PSoC6/I2C_MAX.h **** 
 131:Generated_Source\PSoC6/I2C_MAX.h **** /***************************************
 132:Generated_Source\PSoC6/I2C_MAX.h **** *         Preprocessor Macros
 133:Generated_Source\PSoC6/I2C_MAX.h **** ***************************************/
 134:Generated_Source\PSoC6/I2C_MAX.h **** /**
 135:Generated_Source\PSoC6/I2C_MAX.h **** * \addtogroup group_macros
ARM GAS  C:\Users\fatim\AppData\Local\Temp\cc5RasCs.s 			page 5


 136:Generated_Source\PSoC6/I2C_MAX.h **** * @{
 137:Generated_Source\PSoC6/I2C_MAX.h **** */
 138:Generated_Source\PSoC6/I2C_MAX.h **** /** The pointer to the base address of the SCB instance */
 139:Generated_Source\PSoC6/I2C_MAX.h **** #define I2C_MAX_HW     ((CySCB_Type *) I2C_MAX_SCB__HW)
 140:Generated_Source\PSoC6/I2C_MAX.h **** 
 141:Generated_Source\PSoC6/I2C_MAX.h **** /** The desired data rate in Hz */
 142:Generated_Source\PSoC6/I2C_MAX.h **** #define I2C_MAX_DATA_RATE_HZ      (400000U)
 143:Generated_Source\PSoC6/I2C_MAX.h **** 
 144:Generated_Source\PSoC6/I2C_MAX.h **** /** The frequency of the clock used by the Component in Hz */
 145:Generated_Source\PSoC6/I2C_MAX.h **** #define I2C_MAX_CLK_FREQ_HZ       (7692307U)
 146:Generated_Source\PSoC6/I2C_MAX.h **** 
 147:Generated_Source\PSoC6/I2C_MAX.h **** /** The number of Component clocks used by the master to generate the SCL
 148:Generated_Source\PSoC6/I2C_MAX.h **** * low phase. This number is calculated by GUI based on the selected data rate.
 149:Generated_Source\PSoC6/I2C_MAX.h **** */
 150:Generated_Source\PSoC6/I2C_MAX.h **** #define I2C_MAX_LOW_PHASE_DUTY_CYCLE   (13U)
 151:Generated_Source\PSoC6/I2C_MAX.h **** 
 152:Generated_Source\PSoC6/I2C_MAX.h **** /** The number of Component clocks used by the master to generate the SCL
 153:Generated_Source\PSoC6/I2C_MAX.h **** * high phase. This number is calculated by GUI based on the selected data rate.
 154:Generated_Source\PSoC6/I2C_MAX.h **** */
 155:Generated_Source\PSoC6/I2C_MAX.h **** #define I2C_MAX_HIGH_PHASE_DUTY_CYCLE  (7U)
 156:Generated_Source\PSoC6/I2C_MAX.h **** /** @} group_macros */
 157:Generated_Source\PSoC6/I2C_MAX.h **** 
 158:Generated_Source\PSoC6/I2C_MAX.h **** 
 159:Generated_Source\PSoC6/I2C_MAX.h **** /***************************************
 160:Generated_Source\PSoC6/I2C_MAX.h **** *    In-line Function Implementation
 161:Generated_Source\PSoC6/I2C_MAX.h **** ***************************************/
 162:Generated_Source\PSoC6/I2C_MAX.h **** 
 163:Generated_Source\PSoC6/I2C_MAX.h **** /*******************************************************************************
 164:Generated_Source\PSoC6/I2C_MAX.h **** * Function Name: I2C_MAX_Init
 165:Generated_Source\PSoC6/I2C_MAX.h **** ****************************************************************************//**
 166:Generated_Source\PSoC6/I2C_MAX.h **** *
 167:Generated_Source\PSoC6/I2C_MAX.h **** * Invokes the Cy_SCB_I2C_Init() PDL driver function.
 168:Generated_Source\PSoC6/I2C_MAX.h **** *
 169:Generated_Source\PSoC6/I2C_MAX.h **** *******************************************************************************/
 170:Generated_Source\PSoC6/I2C_MAX.h **** __STATIC_INLINE cy_en_scb_i2c_status_t I2C_MAX_Init(cy_stc_scb_i2c_config_t const *config)
 171:Generated_Source\PSoC6/I2C_MAX.h **** {
 172:Generated_Source\PSoC6/I2C_MAX.h ****     return Cy_SCB_I2C_Init(I2C_MAX_HW, config, &I2C_MAX_context);
 173:Generated_Source\PSoC6/I2C_MAX.h **** }
 174:Generated_Source\PSoC6/I2C_MAX.h **** 
 175:Generated_Source\PSoC6/I2C_MAX.h **** 
 176:Generated_Source\PSoC6/I2C_MAX.h **** /*******************************************************************************
 177:Generated_Source\PSoC6/I2C_MAX.h **** *  Function Name: I2C_MAX_DeInit
 178:Generated_Source\PSoC6/I2C_MAX.h **** ****************************************************************************//**
 179:Generated_Source\PSoC6/I2C_MAX.h **** *
 180:Generated_Source\PSoC6/I2C_MAX.h **** * Invokes the Cy_SCB_I2C_DeInit() PDL driver function.
 181:Generated_Source\PSoC6/I2C_MAX.h **** *
 182:Generated_Source\PSoC6/I2C_MAX.h **** *******************************************************************************/
 183:Generated_Source\PSoC6/I2C_MAX.h **** __STATIC_INLINE void I2C_MAX_DeInit(void)
 184:Generated_Source\PSoC6/I2C_MAX.h **** {
 185:Generated_Source\PSoC6/I2C_MAX.h ****     Cy_SCB_I2C_DeInit(I2C_MAX_HW);
 186:Generated_Source\PSoC6/I2C_MAX.h **** }
 187:Generated_Source\PSoC6/I2C_MAX.h **** 
 188:Generated_Source\PSoC6/I2C_MAX.h **** 
 189:Generated_Source\PSoC6/I2C_MAX.h **** /*******************************************************************************
 190:Generated_Source\PSoC6/I2C_MAX.h **** * Function Name: I2C_MAX_Enable
 191:Generated_Source\PSoC6/I2C_MAX.h **** ****************************************************************************//**
 192:Generated_Source\PSoC6/I2C_MAX.h **** *
ARM GAS  C:\Users\fatim\AppData\Local\Temp\cc5RasCs.s 			page 6


 193:Generated_Source\PSoC6/I2C_MAX.h **** * Invokes the Cy_SCB_I2C_Enable() PDL driver function.
 194:Generated_Source\PSoC6/I2C_MAX.h **** *
 195:Generated_Source\PSoC6/I2C_MAX.h **** *******************************************************************************/
 196:Generated_Source\PSoC6/I2C_MAX.h **** __STATIC_INLINE void I2C_MAX_Enable(void)
 197:Generated_Source\PSoC6/I2C_MAX.h **** {
 198:Generated_Source\PSoC6/I2C_MAX.h ****     Cy_SCB_I2C_Enable(I2C_MAX_HW);
 199:Generated_Source\PSoC6/I2C_MAX.h **** }
 200:Generated_Source\PSoC6/I2C_MAX.h **** 
 201:Generated_Source\PSoC6/I2C_MAX.h **** 
 202:Generated_Source\PSoC6/I2C_MAX.h **** /*******************************************************************************
 203:Generated_Source\PSoC6/I2C_MAX.h **** * Function Name: I2C_MAX_Disable
 204:Generated_Source\PSoC6/I2C_MAX.h **** ****************************************************************************//**
 205:Generated_Source\PSoC6/I2C_MAX.h **** *
 206:Generated_Source\PSoC6/I2C_MAX.h **** * Invokes the Cy_SCB_I2C_Disable() PDL driver function.
 207:Generated_Source\PSoC6/I2C_MAX.h **** *
 208:Generated_Source\PSoC6/I2C_MAX.h **** *******************************************************************************/
 209:Generated_Source\PSoC6/I2C_MAX.h **** __STATIC_INLINE void I2C_MAX_Disable(void)
 210:Generated_Source\PSoC6/I2C_MAX.h **** {
 211:Generated_Source\PSoC6/I2C_MAX.h ****     Cy_SCB_I2C_Disable(I2C_MAX_HW, &I2C_MAX_context);
 212:Generated_Source\PSoC6/I2C_MAX.h **** }
 213:Generated_Source\PSoC6/I2C_MAX.h **** 
 214:Generated_Source\PSoC6/I2C_MAX.h **** 
 215:Generated_Source\PSoC6/I2C_MAX.h **** /*******************************************************************************
 216:Generated_Source\PSoC6/I2C_MAX.h **** * Function Name: I2C_MAX_SetDataRate
 217:Generated_Source\PSoC6/I2C_MAX.h **** ****************************************************************************//**
 218:Generated_Source\PSoC6/I2C_MAX.h **** *
 219:Generated_Source\PSoC6/I2C_MAX.h **** * Invokes the Cy_SCB_I2C_SetDataRate() PDL driver function.
 220:Generated_Source\PSoC6/I2C_MAX.h **** *
 221:Generated_Source\PSoC6/I2C_MAX.h **** *******************************************************************************/
 222:Generated_Source\PSoC6/I2C_MAX.h **** __STATIC_INLINE uint32_t I2C_MAX_SetDataRate(uint32_t dataRateHz, uint32_t scbClockHz)
 223:Generated_Source\PSoC6/I2C_MAX.h **** {
 224:Generated_Source\PSoC6/I2C_MAX.h ****     return Cy_SCB_I2C_SetDataRate(I2C_MAX_HW, dataRateHz, scbClockHz);
 225:Generated_Source\PSoC6/I2C_MAX.h **** }
 226:Generated_Source\PSoC6/I2C_MAX.h **** 
 227:Generated_Source\PSoC6/I2C_MAX.h **** 
 228:Generated_Source\PSoC6/I2C_MAX.h **** /*******************************************************************************
 229:Generated_Source\PSoC6/I2C_MAX.h **** * Function Name: I2C_MAX_GetDataRate
 230:Generated_Source\PSoC6/I2C_MAX.h **** ****************************************************************************//**
 231:Generated_Source\PSoC6/I2C_MAX.h **** *
 232:Generated_Source\PSoC6/I2C_MAX.h **** * Invokes the Cy_SCB_I2C_GetDataRate() PDL driver function.
 233:Generated_Source\PSoC6/I2C_MAX.h **** *
 234:Generated_Source\PSoC6/I2C_MAX.h **** *******************************************************************************/
 235:Generated_Source\PSoC6/I2C_MAX.h **** __STATIC_INLINE uint32_t I2C_MAX_GetDataRate(uint32_t scbClockHz)
 236:Generated_Source\PSoC6/I2C_MAX.h **** {
 237:Generated_Source\PSoC6/I2C_MAX.h ****     return Cy_SCB_I2C_GetDataRate(I2C_MAX_HW, scbClockHz);
 238:Generated_Source\PSoC6/I2C_MAX.h **** }
 239:Generated_Source\PSoC6/I2C_MAX.h **** 
 240:Generated_Source\PSoC6/I2C_MAX.h **** 
 241:Generated_Source\PSoC6/I2C_MAX.h **** /*******************************************************************************
 242:Generated_Source\PSoC6/I2C_MAX.h **** * Function Name: I2C_MAX_RegisterEventCallback
 243:Generated_Source\PSoC6/I2C_MAX.h **** ****************************************************************************//**
 244:Generated_Source\PSoC6/I2C_MAX.h **** *
 245:Generated_Source\PSoC6/I2C_MAX.h **** * Invokes the Cy_SCB_I2C_RegisterEventCallback() PDL driver function.
 246:Generated_Source\PSoC6/I2C_MAX.h **** *
 247:Generated_Source\PSoC6/I2C_MAX.h **** *******************************************************************************/
 248:Generated_Source\PSoC6/I2C_MAX.h **** __STATIC_INLINE void I2C_MAX_RegisterEventCallback(cy_cb_scb_i2c_handle_events_t callback)
 249:Generated_Source\PSoC6/I2C_MAX.h **** {
ARM GAS  C:\Users\fatim\AppData\Local\Temp\cc5RasCs.s 			page 7


 250:Generated_Source\PSoC6/I2C_MAX.h ****     Cy_SCB_I2C_RegisterEventCallback(I2C_MAX_HW, callback, &I2C_MAX_context);
 251:Generated_Source\PSoC6/I2C_MAX.h **** }
 252:Generated_Source\PSoC6/I2C_MAX.h **** 
 253:Generated_Source\PSoC6/I2C_MAX.h **** 
 254:Generated_Source\PSoC6/I2C_MAX.h **** #if (I2C_MAX_ENABLE_SLAVE)
 255:Generated_Source\PSoC6/I2C_MAX.h **** /*******************************************************************************
 256:Generated_Source\PSoC6/I2C_MAX.h **** * Function Name: I2C_MAX_RegisterAddrCallback
 257:Generated_Source\PSoC6/I2C_MAX.h **** ****************************************************************************//**
 258:Generated_Source\PSoC6/I2C_MAX.h **** *
 259:Generated_Source\PSoC6/I2C_MAX.h **** * Invokes the Cy_SCB_I2C_RegisterAddrCallback() PDL driver function.
 260:Generated_Source\PSoC6/I2C_MAX.h **** *
 261:Generated_Source\PSoC6/I2C_MAX.h **** *******************************************************************************/
 262:Generated_Source\PSoC6/I2C_MAX.h **** __STATIC_INLINE void I2C_MAX_RegisterAddrCallback(cy_cb_scb_i2c_handle_addr_t callback)
 263:Generated_Source\PSoC6/I2C_MAX.h **** {
 264:Generated_Source\PSoC6/I2C_MAX.h ****     Cy_SCB_I2C_RegisterAddrCallback(I2C_MAX_HW, callback, &I2C_MAX_context);
 265:Generated_Source\PSoC6/I2C_MAX.h **** }
 266:Generated_Source\PSoC6/I2C_MAX.h **** #endif /* (I2C_MAX_ENABLE_SLAVE) */
 267:Generated_Source\PSoC6/I2C_MAX.h **** 
 268:Generated_Source\PSoC6/I2C_MAX.h **** 
 269:Generated_Source\PSoC6/I2C_MAX.h **** /*******************************************************************************
 270:Generated_Source\PSoC6/I2C_MAX.h **** * Function Name: I2C_MAX_IsBusBusy
 271:Generated_Source\PSoC6/I2C_MAX.h **** ****************************************************************************//**
 272:Generated_Source\PSoC6/I2C_MAX.h **** *
 273:Generated_Source\PSoC6/I2C_MAX.h **** * Invokes the Cy_SCB_I2C_IsBusBusy() PDL driver function.
 274:Generated_Source\PSoC6/I2C_MAX.h **** *
 275:Generated_Source\PSoC6/I2C_MAX.h **** *******************************************************************************/
 276:Generated_Source\PSoC6/I2C_MAX.h **** __STATIC_INLINE bool I2C_MAX_IsBusBusy(void)
 277:Generated_Source\PSoC6/I2C_MAX.h **** {
 278:Generated_Source\PSoC6/I2C_MAX.h ****     return Cy_SCB_I2C_IsBusBusy(I2C_MAX_HW);
 279:Generated_Source\PSoC6/I2C_MAX.h **** }
 280:Generated_Source\PSoC6/I2C_MAX.h **** 
 281:Generated_Source\PSoC6/I2C_MAX.h **** 
 282:Generated_Source\PSoC6/I2C_MAX.h **** #if (I2C_MAX_ENABLE_SLAVE)
 283:Generated_Source\PSoC6/I2C_MAX.h **** /*******************************************************************************
 284:Generated_Source\PSoC6/I2C_MAX.h **** * Function Name: I2C_MAX_SlaveSetAddress
 285:Generated_Source\PSoC6/I2C_MAX.h **** ****************************************************************************//**
 286:Generated_Source\PSoC6/I2C_MAX.h **** *
 287:Generated_Source\PSoC6/I2C_MAX.h **** * Invokes the Cy_SCB_I2C_SlaveGetAddress() PDL driver function.
 288:Generated_Source\PSoC6/I2C_MAX.h **** *
 289:Generated_Source\PSoC6/I2C_MAX.h **** *******************************************************************************/
 290:Generated_Source\PSoC6/I2C_MAX.h **** __STATIC_INLINE void I2C_MAX_SlaveSetAddress(uint8_t addr)
 291:Generated_Source\PSoC6/I2C_MAX.h **** {
 292:Generated_Source\PSoC6/I2C_MAX.h ****     Cy_SCB_I2C_SlaveSetAddress(I2C_MAX_HW, addr);
 293:Generated_Source\PSoC6/I2C_MAX.h **** }
 294:Generated_Source\PSoC6/I2C_MAX.h **** 
 295:Generated_Source\PSoC6/I2C_MAX.h **** 
 296:Generated_Source\PSoC6/I2C_MAX.h **** /*******************************************************************************
 297:Generated_Source\PSoC6/I2C_MAX.h **** * Function Name: I2C_MAX_SlaveGetAddress
 298:Generated_Source\PSoC6/I2C_MAX.h **** ****************************************************************************//**
 299:Generated_Source\PSoC6/I2C_MAX.h **** *
 300:Generated_Source\PSoC6/I2C_MAX.h **** * Invokes the Cy_SCB_I2C_SlaveGetAddress() PDL driver function.
 301:Generated_Source\PSoC6/I2C_MAX.h **** *
 302:Generated_Source\PSoC6/I2C_MAX.h **** *******************************************************************************/
 303:Generated_Source\PSoC6/I2C_MAX.h **** __STATIC_INLINE uint32_t I2C_MAX_SlaveGetAddress(void)
 304:Generated_Source\PSoC6/I2C_MAX.h **** {
 305:Generated_Source\PSoC6/I2C_MAX.h ****     return Cy_SCB_I2C_SlaveGetAddress(I2C_MAX_HW);
 306:Generated_Source\PSoC6/I2C_MAX.h **** }
ARM GAS  C:\Users\fatim\AppData\Local\Temp\cc5RasCs.s 			page 8


 307:Generated_Source\PSoC6/I2C_MAX.h **** 
 308:Generated_Source\PSoC6/I2C_MAX.h **** 
 309:Generated_Source\PSoC6/I2C_MAX.h **** /*******************************************************************************
 310:Generated_Source\PSoC6/I2C_MAX.h **** * Function Name: I2C_MAX_SlaveSetAddressMask
 311:Generated_Source\PSoC6/I2C_MAX.h **** ****************************************************************************//**
 312:Generated_Source\PSoC6/I2C_MAX.h **** *
 313:Generated_Source\PSoC6/I2C_MAX.h **** * Invokes the Cy_SCB_I2C_SlaveSetAddressMask() PDL driver function.
 314:Generated_Source\PSoC6/I2C_MAX.h **** *
 315:Generated_Source\PSoC6/I2C_MAX.h **** *******************************************************************************/
 316:Generated_Source\PSoC6/I2C_MAX.h **** __STATIC_INLINE void I2C_MAX_SlaveSetAddressMask(uint8_t addrMask)
 317:Generated_Source\PSoC6/I2C_MAX.h **** {
 318:Generated_Source\PSoC6/I2C_MAX.h ****     Cy_SCB_I2C_SlaveSetAddressMask(I2C_MAX_HW, addrMask);
 319:Generated_Source\PSoC6/I2C_MAX.h **** }
 320:Generated_Source\PSoC6/I2C_MAX.h **** 
 321:Generated_Source\PSoC6/I2C_MAX.h **** 
 322:Generated_Source\PSoC6/I2C_MAX.h **** /*******************************************************************************
 323:Generated_Source\PSoC6/I2C_MAX.h **** * Function Name: I2C_MAX_SlaveGetAddressMask
 324:Generated_Source\PSoC6/I2C_MAX.h **** ****************************************************************************//**
 325:Generated_Source\PSoC6/I2C_MAX.h **** *
 326:Generated_Source\PSoC6/I2C_MAX.h **** * Invokes the Cy_SCB_I2C_SlaveGetAddressMask() PDL driver function.
 327:Generated_Source\PSoC6/I2C_MAX.h **** *
 328:Generated_Source\PSoC6/I2C_MAX.h **** *******************************************************************************/
 329:Generated_Source\PSoC6/I2C_MAX.h **** __STATIC_INLINE uint32_t I2C_MAX_SlaveGetAddressMask(void)
 330:Generated_Source\PSoC6/I2C_MAX.h **** {
 331:Generated_Source\PSoC6/I2C_MAX.h ****     return Cy_SCB_I2C_SlaveGetAddressMask(I2C_MAX_HW);
 332:Generated_Source\PSoC6/I2C_MAX.h **** }
 333:Generated_Source\PSoC6/I2C_MAX.h **** #endif /* (I2C_MAX_ENABLE_SLAVE) */
 334:Generated_Source\PSoC6/I2C_MAX.h **** 
 335:Generated_Source\PSoC6/I2C_MAX.h **** #if (I2C_MAX_ENABLE_MASTER)
 336:Generated_Source\PSoC6/I2C_MAX.h **** /*******************************************************************************
 337:Generated_Source\PSoC6/I2C_MAX.h **** * Function Name: I2C_MAX_MasterSetLowPhaseDutyCycle
 338:Generated_Source\PSoC6/I2C_MAX.h **** ****************************************************************************//**
 339:Generated_Source\PSoC6/I2C_MAX.h **** *
 340:Generated_Source\PSoC6/I2C_MAX.h **** * Invokes the Cy_SCB_I2C_MasterSetLowPhaseDutyCycle() PDL driver function.
 341:Generated_Source\PSoC6/I2C_MAX.h **** *
 342:Generated_Source\PSoC6/I2C_MAX.h **** *******************************************************************************/
 343:Generated_Source\PSoC6/I2C_MAX.h **** __STATIC_INLINE void I2C_MAX_MasterSetLowPhaseDutyCycle(uint32_t clockCycles)
 344:Generated_Source\PSoC6/I2C_MAX.h **** {
 345:Generated_Source\PSoC6/I2C_MAX.h ****     Cy_SCB_I2C_MasterSetLowPhaseDutyCycle(I2C_MAX_HW, clockCycles);
 346:Generated_Source\PSoC6/I2C_MAX.h **** }
 347:Generated_Source\PSoC6/I2C_MAX.h **** 
 348:Generated_Source\PSoC6/I2C_MAX.h **** 
 349:Generated_Source\PSoC6/I2C_MAX.h **** /*******************************************************************************
 350:Generated_Source\PSoC6/I2C_MAX.h **** * Function Name: I2C_MAX_MasterSetHighPhaseDutyCycle
 351:Generated_Source\PSoC6/I2C_MAX.h **** ****************************************************************************//**
 352:Generated_Source\PSoC6/I2C_MAX.h **** *
 353:Generated_Source\PSoC6/I2C_MAX.h **** * Invokes the Cy_SCB_I2C_MasterSetHighPhaseDutyCycle() PDL driver function.
 354:Generated_Source\PSoC6/I2C_MAX.h **** *
 355:Generated_Source\PSoC6/I2C_MAX.h **** *******************************************************************************/
 356:Generated_Source\PSoC6/I2C_MAX.h **** __STATIC_INLINE void I2C_MAX_MasterSetHighPhaseDutyCycle(uint32_t clockCycles)
 357:Generated_Source\PSoC6/I2C_MAX.h **** {
 358:Generated_Source\PSoC6/I2C_MAX.h ****     Cy_SCB_I2C_MasterSetHighPhaseDutyCycle(I2C_MAX_HW, clockCycles);
 359:Generated_Source\PSoC6/I2C_MAX.h **** }
 360:Generated_Source\PSoC6/I2C_MAX.h **** #endif /* (I2C_MAX_ENABLE_MASTER) */
 361:Generated_Source\PSoC6/I2C_MAX.h **** 
 362:Generated_Source\PSoC6/I2C_MAX.h **** 
 363:Generated_Source\PSoC6/I2C_MAX.h **** #if (I2C_MAX_ENABLE_SLAVE)
ARM GAS  C:\Users\fatim\AppData\Local\Temp\cc5RasCs.s 			page 9


 364:Generated_Source\PSoC6/I2C_MAX.h **** /*******************************************************************************
 365:Generated_Source\PSoC6/I2C_MAX.h **** * Function Name: I2C_MAX_SlaveGetStatus
 366:Generated_Source\PSoC6/I2C_MAX.h **** ****************************************************************************//**
 367:Generated_Source\PSoC6/I2C_MAX.h **** *
 368:Generated_Source\PSoC6/I2C_MAX.h **** * Invokes the Cy_SCB_I2C_SlaveGetStatus() PDL driver function.
 369:Generated_Source\PSoC6/I2C_MAX.h **** *
 370:Generated_Source\PSoC6/I2C_MAX.h **** *******************************************************************************/
 371:Generated_Source\PSoC6/I2C_MAX.h **** __STATIC_INLINE uint32_t I2C_MAX_SlaveGetStatus(void)
 372:Generated_Source\PSoC6/I2C_MAX.h **** {
 373:Generated_Source\PSoC6/I2C_MAX.h ****     return Cy_SCB_I2C_SlaveGetStatus(I2C_MAX_HW, &I2C_MAX_context);
 374:Generated_Source\PSoC6/I2C_MAX.h **** }
 375:Generated_Source\PSoC6/I2C_MAX.h **** 
 376:Generated_Source\PSoC6/I2C_MAX.h **** 
 377:Generated_Source\PSoC6/I2C_MAX.h **** /*******************************************************************************
 378:Generated_Source\PSoC6/I2C_MAX.h **** * Function Name: I2C_MAX_SlaveConfigReadBuf
 379:Generated_Source\PSoC6/I2C_MAX.h **** ****************************************************************************//**
 380:Generated_Source\PSoC6/I2C_MAX.h **** *
 381:Generated_Source\PSoC6/I2C_MAX.h **** * Invokes the Cy_SCB_I2C_SlaveConfigReadBuf() PDL driver function.
 382:Generated_Source\PSoC6/I2C_MAX.h **** *
 383:Generated_Source\PSoC6/I2C_MAX.h **** *******************************************************************************/
 384:Generated_Source\PSoC6/I2C_MAX.h **** __STATIC_INLINE void I2C_MAX_SlaveConfigReadBuf(uint8_t *buffer, uint32_t size)
 385:Generated_Source\PSoC6/I2C_MAX.h **** {
 386:Generated_Source\PSoC6/I2C_MAX.h ****     Cy_SCB_I2C_SlaveConfigReadBuf(I2C_MAX_HW, buffer, size, &I2C_MAX_context);
 387:Generated_Source\PSoC6/I2C_MAX.h **** }
 388:Generated_Source\PSoC6/I2C_MAX.h **** 
 389:Generated_Source\PSoC6/I2C_MAX.h **** 
 390:Generated_Source\PSoC6/I2C_MAX.h **** /*******************************************************************************
 391:Generated_Source\PSoC6/I2C_MAX.h **** * Function Name: I2C_MAX_SlaveAbortRead
 392:Generated_Source\PSoC6/I2C_MAX.h **** ****************************************************************************//**
 393:Generated_Source\PSoC6/I2C_MAX.h **** *
 394:Generated_Source\PSoC6/I2C_MAX.h **** * Invokes the Cy_SCB_I2C_SlaveAbortRead() PDL driver function.
 395:Generated_Source\PSoC6/I2C_MAX.h **** *
 396:Generated_Source\PSoC6/I2C_MAX.h **** *******************************************************************************/
 397:Generated_Source\PSoC6/I2C_MAX.h **** __STATIC_INLINE void I2C_MAX_SlaveAbortRead(void)
 398:Generated_Source\PSoC6/I2C_MAX.h **** {
 399:Generated_Source\PSoC6/I2C_MAX.h ****     Cy_SCB_I2C_SlaveAbortRead(I2C_MAX_HW, &I2C_MAX_context);
 400:Generated_Source\PSoC6/I2C_MAX.h **** }
 401:Generated_Source\PSoC6/I2C_MAX.h **** 
 402:Generated_Source\PSoC6/I2C_MAX.h **** 
 403:Generated_Source\PSoC6/I2C_MAX.h **** /*******************************************************************************
 404:Generated_Source\PSoC6/I2C_MAX.h **** * Function Name: I2C_MAX_SlaveGetReadTransferCount
 405:Generated_Source\PSoC6/I2C_MAX.h **** ****************************************************************************//**
 406:Generated_Source\PSoC6/I2C_MAX.h **** *
 407:Generated_Source\PSoC6/I2C_MAX.h **** * Invokes the Cy_SCB_I2C_SlaveGetReadTransferCount() PDL driver function.
 408:Generated_Source\PSoC6/I2C_MAX.h **** *
 409:Generated_Source\PSoC6/I2C_MAX.h **** *******************************************************************************/
 410:Generated_Source\PSoC6/I2C_MAX.h **** __STATIC_INLINE uint32_t I2C_MAX_SlaveGetReadTransferCount(void)
 411:Generated_Source\PSoC6/I2C_MAX.h **** {
 412:Generated_Source\PSoC6/I2C_MAX.h ****     return Cy_SCB_I2C_SlaveGetReadTransferCount(I2C_MAX_HW, &I2C_MAX_context);
 413:Generated_Source\PSoC6/I2C_MAX.h **** }
 414:Generated_Source\PSoC6/I2C_MAX.h **** 
 415:Generated_Source\PSoC6/I2C_MAX.h **** 
 416:Generated_Source\PSoC6/I2C_MAX.h **** /*******************************************************************************
 417:Generated_Source\PSoC6/I2C_MAX.h **** * Function Name: I2C_MAX_SlaveClearReadStatus
 418:Generated_Source\PSoC6/I2C_MAX.h **** ****************************************************************************//**
 419:Generated_Source\PSoC6/I2C_MAX.h **** *
 420:Generated_Source\PSoC6/I2C_MAX.h **** * Invokes the Cy_SCB_I2C_SlaveClearReadStatus() PDL driver function.
ARM GAS  C:\Users\fatim\AppData\Local\Temp\cc5RasCs.s 			page 10


 421:Generated_Source\PSoC6/I2C_MAX.h **** *
 422:Generated_Source\PSoC6/I2C_MAX.h **** *******************************************************************************/
 423:Generated_Source\PSoC6/I2C_MAX.h **** __STATIC_INLINE uint32_t I2C_MAX_SlaveClearReadStatus(void)
 424:Generated_Source\PSoC6/I2C_MAX.h **** {
 425:Generated_Source\PSoC6/I2C_MAX.h ****     return Cy_SCB_I2C_SlaveClearReadStatus(I2C_MAX_HW, &I2C_MAX_context);
 426:Generated_Source\PSoC6/I2C_MAX.h **** }
 427:Generated_Source\PSoC6/I2C_MAX.h **** 
 428:Generated_Source\PSoC6/I2C_MAX.h **** 
 429:Generated_Source\PSoC6/I2C_MAX.h **** /*******************************************************************************
 430:Generated_Source\PSoC6/I2C_MAX.h **** * Function Name: I2C_MAX_SlaveConfigWriteBuf
 431:Generated_Source\PSoC6/I2C_MAX.h **** ****************************************************************************//**
 432:Generated_Source\PSoC6/I2C_MAX.h **** *
 433:Generated_Source\PSoC6/I2C_MAX.h **** * Invokes the Cy_SCB_I2C_SlaveConfigWriteBuf() PDL driver function.
 434:Generated_Source\PSoC6/I2C_MAX.h **** *
 435:Generated_Source\PSoC6/I2C_MAX.h **** *******************************************************************************/
 436:Generated_Source\PSoC6/I2C_MAX.h **** __STATIC_INLINE void I2C_MAX_SlaveConfigWriteBuf(uint8_t *buffer, uint32_t size)
 437:Generated_Source\PSoC6/I2C_MAX.h **** {
 438:Generated_Source\PSoC6/I2C_MAX.h ****     Cy_SCB_I2C_SlaveConfigWriteBuf(I2C_MAX_HW, buffer, size, &I2C_MAX_context);
 439:Generated_Source\PSoC6/I2C_MAX.h **** }
 440:Generated_Source\PSoC6/I2C_MAX.h **** 
 441:Generated_Source\PSoC6/I2C_MAX.h **** 
 442:Generated_Source\PSoC6/I2C_MAX.h **** /*******************************************************************************
 443:Generated_Source\PSoC6/I2C_MAX.h **** * Function Name: I2C_MAX_SlaveAbortWrite
 444:Generated_Source\PSoC6/I2C_MAX.h **** ****************************************************************************//**
 445:Generated_Source\PSoC6/I2C_MAX.h **** *
 446:Generated_Source\PSoC6/I2C_MAX.h **** * Invokes the Cy_SCB_I2C_SlaveAbortWrite() PDL driver function.
 447:Generated_Source\PSoC6/I2C_MAX.h **** *
 448:Generated_Source\PSoC6/I2C_MAX.h **** *******************************************************************************/
 449:Generated_Source\PSoC6/I2C_MAX.h **** __STATIC_INLINE void I2C_MAX_SlaveAbortWrite(void)
 450:Generated_Source\PSoC6/I2C_MAX.h **** {
 451:Generated_Source\PSoC6/I2C_MAX.h ****     Cy_SCB_I2C_SlaveAbortWrite(I2C_MAX_HW, &I2C_MAX_context);
 452:Generated_Source\PSoC6/I2C_MAX.h **** }
 453:Generated_Source\PSoC6/I2C_MAX.h **** 
 454:Generated_Source\PSoC6/I2C_MAX.h **** 
 455:Generated_Source\PSoC6/I2C_MAX.h **** /*******************************************************************************
 456:Generated_Source\PSoC6/I2C_MAX.h **** * Function Name: I2C_MAX_SlaveGetWriteTransferCount
 457:Generated_Source\PSoC6/I2C_MAX.h **** ****************************************************************************//**
 458:Generated_Source\PSoC6/I2C_MAX.h **** *
 459:Generated_Source\PSoC6/I2C_MAX.h **** * Invokes the Cy_SCB_I2C_SlaveGetWriteTransferCount() PDL driver function.
 460:Generated_Source\PSoC6/I2C_MAX.h **** *
 461:Generated_Source\PSoC6/I2C_MAX.h **** *******************************************************************************/
 462:Generated_Source\PSoC6/I2C_MAX.h **** __STATIC_INLINE uint32_t I2C_MAX_SlaveGetWriteTransferCount(void)
 463:Generated_Source\PSoC6/I2C_MAX.h **** {
 464:Generated_Source\PSoC6/I2C_MAX.h ****     return Cy_SCB_I2C_SlaveGetWriteTransferCount(I2C_MAX_HW, &I2C_MAX_context);
 465:Generated_Source\PSoC6/I2C_MAX.h **** }
 466:Generated_Source\PSoC6/I2C_MAX.h **** 
 467:Generated_Source\PSoC6/I2C_MAX.h **** 
 468:Generated_Source\PSoC6/I2C_MAX.h **** /*******************************************************************************
 469:Generated_Source\PSoC6/I2C_MAX.h **** * Function Name: I2C_MAX_SlaveClearWriteStatus
 470:Generated_Source\PSoC6/I2C_MAX.h **** ****************************************************************************//**
 471:Generated_Source\PSoC6/I2C_MAX.h **** *
 472:Generated_Source\PSoC6/I2C_MAX.h **** * Invokes the Cy_SCB_I2C_SlaveClearWriteStatus() PDL driver function.
 473:Generated_Source\PSoC6/I2C_MAX.h **** *
 474:Generated_Source\PSoC6/I2C_MAX.h **** *******************************************************************************/
 475:Generated_Source\PSoC6/I2C_MAX.h **** __STATIC_INLINE uint32_t I2C_MAX_SlaveClearWriteStatus(void)
 476:Generated_Source\PSoC6/I2C_MAX.h **** {
 477:Generated_Source\PSoC6/I2C_MAX.h ****     return Cy_SCB_I2C_SlaveClearWriteStatus(I2C_MAX_HW, &I2C_MAX_context);
ARM GAS  C:\Users\fatim\AppData\Local\Temp\cc5RasCs.s 			page 11


 478:Generated_Source\PSoC6/I2C_MAX.h **** }
 479:Generated_Source\PSoC6/I2C_MAX.h **** #endif /* (I2C_MAX_ENABLE_SLAVE) */
 480:Generated_Source\PSoC6/I2C_MAX.h **** 
 481:Generated_Source\PSoC6/I2C_MAX.h **** 
 482:Generated_Source\PSoC6/I2C_MAX.h **** #if (I2C_MAX_ENABLE_MASTER)
 483:Generated_Source\PSoC6/I2C_MAX.h **** /*******************************************************************************
 484:Generated_Source\PSoC6/I2C_MAX.h **** * Function Name: I2C_MAX_MasterGetStatus
 485:Generated_Source\PSoC6/I2C_MAX.h **** ****************************************************************************//**
 486:Generated_Source\PSoC6/I2C_MAX.h **** *
 487:Generated_Source\PSoC6/I2C_MAX.h **** * Invokes the Cy_SCB_I2C_MasterGetStatus() PDL driver function.
 488:Generated_Source\PSoC6/I2C_MAX.h **** *
 489:Generated_Source\PSoC6/I2C_MAX.h **** *******************************************************************************/
 490:Generated_Source\PSoC6/I2C_MAX.h **** __STATIC_INLINE uint32_t I2C_MAX_MasterGetStatus(void)
 491:Generated_Source\PSoC6/I2C_MAX.h **** {
 492:Generated_Source\PSoC6/I2C_MAX.h ****     return Cy_SCB_I2C_MasterGetStatus(I2C_MAX_HW, &I2C_MAX_context);
 493:Generated_Source\PSoC6/I2C_MAX.h **** }
 494:Generated_Source\PSoC6/I2C_MAX.h **** 
 495:Generated_Source\PSoC6/I2C_MAX.h **** 
 496:Generated_Source\PSoC6/I2C_MAX.h **** /*******************************************************************************
 497:Generated_Source\PSoC6/I2C_MAX.h **** * Function Name: I2C_MAX_MasterRead
 498:Generated_Source\PSoC6/I2C_MAX.h **** ****************************************************************************//**
 499:Generated_Source\PSoC6/I2C_MAX.h **** *
 500:Generated_Source\PSoC6/I2C_MAX.h **** * Invokes the Cy_SCB_I2C_MasterRead() PDL driver function.
 501:Generated_Source\PSoC6/I2C_MAX.h **** *
 502:Generated_Source\PSoC6/I2C_MAX.h **** *******************************************************************************/
 503:Generated_Source\PSoC6/I2C_MAX.h **** __STATIC_INLINE cy_en_scb_i2c_status_t I2C_MAX_MasterRead(cy_stc_scb_i2c_master_xfer_config_t *xfer
 504:Generated_Source\PSoC6/I2C_MAX.h **** {
 505:Generated_Source\PSoC6/I2C_MAX.h ****     return Cy_SCB_I2C_MasterRead(I2C_MAX_HW, xferConfig, &I2C_MAX_context);
 506:Generated_Source\PSoC6/I2C_MAX.h **** }
 507:Generated_Source\PSoC6/I2C_MAX.h **** 
 508:Generated_Source\PSoC6/I2C_MAX.h **** 
 509:Generated_Source\PSoC6/I2C_MAX.h **** /*******************************************************************************
 510:Generated_Source\PSoC6/I2C_MAX.h **** * Function Name: I2C_MAX_MasterAbortRead
 511:Generated_Source\PSoC6/I2C_MAX.h **** ****************************************************************************//**
 512:Generated_Source\PSoC6/I2C_MAX.h **** *
 513:Generated_Source\PSoC6/I2C_MAX.h **** * Invokes the Cy_SCB_I2C_MasterAbortRead() PDL driver function.
 514:Generated_Source\PSoC6/I2C_MAX.h **** *
 515:Generated_Source\PSoC6/I2C_MAX.h **** ******************************************************************************/
 516:Generated_Source\PSoC6/I2C_MAX.h **** __STATIC_INLINE void I2C_MAX_MasterAbortRead(void)
 517:Generated_Source\PSoC6/I2C_MAX.h **** {
 518:Generated_Source\PSoC6/I2C_MAX.h ****     Cy_SCB_I2C_MasterAbortRead(I2C_MAX_HW, &I2C_MAX_context);
 519:Generated_Source\PSoC6/I2C_MAX.h **** }
 520:Generated_Source\PSoC6/I2C_MAX.h **** 
 521:Generated_Source\PSoC6/I2C_MAX.h **** 
 522:Generated_Source\PSoC6/I2C_MAX.h **** /*******************************************************************************
 523:Generated_Source\PSoC6/I2C_MAX.h **** * Function Name: I2C_MAX_MasterWrite
 524:Generated_Source\PSoC6/I2C_MAX.h **** ****************************************************************************//**
 525:Generated_Source\PSoC6/I2C_MAX.h **** *
 526:Generated_Source\PSoC6/I2C_MAX.h **** * Invokes the Cy_SCB_I2C_MasterWrite() PDL driver function.
 527:Generated_Source\PSoC6/I2C_MAX.h **** *
 528:Generated_Source\PSoC6/I2C_MAX.h **** *******************************************************************************/
 529:Generated_Source\PSoC6/I2C_MAX.h **** __STATIC_INLINE cy_en_scb_i2c_status_t I2C_MAX_MasterWrite(cy_stc_scb_i2c_master_xfer_config_t *xfe
 530:Generated_Source\PSoC6/I2C_MAX.h **** {
 531:Generated_Source\PSoC6/I2C_MAX.h ****     return Cy_SCB_I2C_MasterWrite(I2C_MAX_HW, xferConfig, &I2C_MAX_context);
 532:Generated_Source\PSoC6/I2C_MAX.h **** }
 533:Generated_Source\PSoC6/I2C_MAX.h **** 
 534:Generated_Source\PSoC6/I2C_MAX.h **** 
ARM GAS  C:\Users\fatim\AppData\Local\Temp\cc5RasCs.s 			page 12


 535:Generated_Source\PSoC6/I2C_MAX.h **** /*******************************************************************************
 536:Generated_Source\PSoC6/I2C_MAX.h **** * Function Name: I2C_MAX_MasterAbortWrite
 537:Generated_Source\PSoC6/I2C_MAX.h **** ****************************************************************************//**
 538:Generated_Source\PSoC6/I2C_MAX.h **** *
 539:Generated_Source\PSoC6/I2C_MAX.h **** * Invokes the Cy_SCB_I2C_MasterAbortWrite() PDL driver function.
 540:Generated_Source\PSoC6/I2C_MAX.h **** *
 541:Generated_Source\PSoC6/I2C_MAX.h **** *******************************************************************************/
 542:Generated_Source\PSoC6/I2C_MAX.h **** __STATIC_INLINE void I2C_MAX_MasterAbortWrite(void)
 543:Generated_Source\PSoC6/I2C_MAX.h **** {
 544:Generated_Source\PSoC6/I2C_MAX.h ****     Cy_SCB_I2C_MasterAbortWrite(I2C_MAX_HW, &I2C_MAX_context);
 545:Generated_Source\PSoC6/I2C_MAX.h **** }
 546:Generated_Source\PSoC6/I2C_MAX.h **** 
 547:Generated_Source\PSoC6/I2C_MAX.h **** 
 548:Generated_Source\PSoC6/I2C_MAX.h **** /*******************************************************************************
 549:Generated_Source\PSoC6/I2C_MAX.h **** * Function Name: I2C_MAX_MasterGetTransferCount
 550:Generated_Source\PSoC6/I2C_MAX.h **** ****************************************************************************//**
 551:Generated_Source\PSoC6/I2C_MAX.h **** *
 552:Generated_Source\PSoC6/I2C_MAX.h **** * Invokes the Cy_SCB_I2C_MasterGetTransferCount() PDL driver function.
 553:Generated_Source\PSoC6/I2C_MAX.h **** *
 554:Generated_Source\PSoC6/I2C_MAX.h **** *******************************************************************************/
 555:Generated_Source\PSoC6/I2C_MAX.h **** __STATIC_INLINE uint32_t I2C_MAX_MasterGetTransferCount(void)
 556:Generated_Source\PSoC6/I2C_MAX.h **** {
 557:Generated_Source\PSoC6/I2C_MAX.h ****     return Cy_SCB_I2C_MasterGetTransferCount(I2C_MAX_HW, &I2C_MAX_context);
 558:Generated_Source\PSoC6/I2C_MAX.h **** }
 559:Generated_Source\PSoC6/I2C_MAX.h **** 
 560:Generated_Source\PSoC6/I2C_MAX.h **** 
 561:Generated_Source\PSoC6/I2C_MAX.h **** /*******************************************************************************
 562:Generated_Source\PSoC6/I2C_MAX.h **** * Function Name: I2C_MAX_MasterSendStart
 563:Generated_Source\PSoC6/I2C_MAX.h **** ****************************************************************************//**
 564:Generated_Source\PSoC6/I2C_MAX.h **** *
 565:Generated_Source\PSoC6/I2C_MAX.h **** * Invokes the Cy_SCB_I2C_MasterSendStart() PDL driver function.
 566:Generated_Source\PSoC6/I2C_MAX.h **** *
 567:Generated_Source\PSoC6/I2C_MAX.h **** *******************************************************************************/
 568:Generated_Source\PSoC6/I2C_MAX.h **** __STATIC_INLINE cy_en_scb_i2c_status_t I2C_MAX_MasterSendStart(uint32_t address, cy_en_scb_i2c_dire
 569:Generated_Source\PSoC6/I2C_MAX.h **** {
 570:Generated_Source\PSoC6/I2C_MAX.h ****     return Cy_SCB_I2C_MasterSendStart(I2C_MAX_HW, address, bitRnW, timeoutMs, &I2C_MAX_context);
  48              		.loc 2 570 0
  49 000c 154B     		ldr	r3, .L6
  50 000e 0093     		str	r3, [sp]
  51 0010 6423     		movs	r3, #100
  52 0012 5721     		movs	r1, #87
  53 0014 1448     		ldr	r0, .L6+4
  54              	.LVL2:
  55 0016 FFF7FEFF 		bl	Cy_SCB_I2C_MasterSendStart
  56              	.LVL3:
  57              	.LBE33:
  58              	.LBE32:
  47:MAX30102.c    ****     
  48:MAX30102.c    ****     status = I2C_MAX_MasterSendStart(ADRESSE_MAX,CY_SCB_I2C_WRITE_XFER,I2C_TIMEOUT);
  49:MAX30102.c    ****     if(status==CY_SCB_I2C_SUCCESS){
  59              		.loc 1 49 0
  60 001a 28B9     		cbnz	r0, .L2
  61              	.LVL4:
  62              	.LBB34:
  63              	.LBB35:
 571:Generated_Source\PSoC6/I2C_MAX.h **** }
 572:Generated_Source\PSoC6/I2C_MAX.h **** 
ARM GAS  C:\Users\fatim\AppData\Local\Temp\cc5RasCs.s 			page 13


 573:Generated_Source\PSoC6/I2C_MAX.h **** 
 574:Generated_Source\PSoC6/I2C_MAX.h **** /*******************************************************************************
 575:Generated_Source\PSoC6/I2C_MAX.h **** * Function Name: I2C_MAX_MasterSendReStart
 576:Generated_Source\PSoC6/I2C_MAX.h **** ****************************************************************************//**
 577:Generated_Source\PSoC6/I2C_MAX.h **** *
 578:Generated_Source\PSoC6/I2C_MAX.h **** * Invokes the Cy_SCB_I2C_MasterSendReStart() PDL driver function.
 579:Generated_Source\PSoC6/I2C_MAX.h **** *
 580:Generated_Source\PSoC6/I2C_MAX.h **** *******************************************************************************/
 581:Generated_Source\PSoC6/I2C_MAX.h **** __STATIC_INLINE cy_en_scb_i2c_status_t I2C_MAX_MasterSendReStart(uint32_t address, cy_en_scb_i2c_di
 582:Generated_Source\PSoC6/I2C_MAX.h **** {
 583:Generated_Source\PSoC6/I2C_MAX.h ****     return Cy_SCB_I2C_MasterSendReStart(I2C_MAX_HW, address, bitRnW, timeoutMs, &I2C_MAX_context);
 584:Generated_Source\PSoC6/I2C_MAX.h **** }
 585:Generated_Source\PSoC6/I2C_MAX.h **** 
 586:Generated_Source\PSoC6/I2C_MAX.h **** 
 587:Generated_Source\PSoC6/I2C_MAX.h **** /*******************************************************************************
 588:Generated_Source\PSoC6/I2C_MAX.h **** * Function Name: I2C_MAX_MasterSendStop
 589:Generated_Source\PSoC6/I2C_MAX.h **** ****************************************************************************//**
 590:Generated_Source\PSoC6/I2C_MAX.h **** *
 591:Generated_Source\PSoC6/I2C_MAX.h **** * Invokes the Cy_SCB_I2C_MasterSendStop() PDL driver function.
 592:Generated_Source\PSoC6/I2C_MAX.h **** *
 593:Generated_Source\PSoC6/I2C_MAX.h **** *******************************************************************************/
 594:Generated_Source\PSoC6/I2C_MAX.h **** __STATIC_INLINE cy_en_scb_i2c_status_t I2C_MAX_MasterSendStop(uint32_t timeoutMs)
 595:Generated_Source\PSoC6/I2C_MAX.h **** {
 596:Generated_Source\PSoC6/I2C_MAX.h ****     return Cy_SCB_I2C_MasterSendStop(I2C_MAX_HW, timeoutMs, &I2C_MAX_context);
 597:Generated_Source\PSoC6/I2C_MAX.h **** }
 598:Generated_Source\PSoC6/I2C_MAX.h **** 
 599:Generated_Source\PSoC6/I2C_MAX.h **** 
 600:Generated_Source\PSoC6/I2C_MAX.h **** /*******************************************************************************
 601:Generated_Source\PSoC6/I2C_MAX.h **** * Function Name: I2C_MAX_MasterReadByte
 602:Generated_Source\PSoC6/I2C_MAX.h **** ****************************************************************************//**
 603:Generated_Source\PSoC6/I2C_MAX.h **** *
 604:Generated_Source\PSoC6/I2C_MAX.h **** * Invokes the Cy_SCB_I2C_MasterReadByte() PDL driver function.
 605:Generated_Source\PSoC6/I2C_MAX.h **** *
 606:Generated_Source\PSoC6/I2C_MAX.h **** *******************************************************************************/
 607:Generated_Source\PSoC6/I2C_MAX.h **** __STATIC_INLINE cy_en_scb_i2c_status_t I2C_MAX_MasterReadByte(cy_en_scb_i2c_command_t ackNack, uint
 608:Generated_Source\PSoC6/I2C_MAX.h **** {
 609:Generated_Source\PSoC6/I2C_MAX.h ****     return Cy_SCB_I2C_MasterReadByte(I2C_MAX_HW, ackNack, byte, timeoutMs, &I2C_MAX_context);
 610:Generated_Source\PSoC6/I2C_MAX.h **** }
 611:Generated_Source\PSoC6/I2C_MAX.h **** 
 612:Generated_Source\PSoC6/I2C_MAX.h **** 
 613:Generated_Source\PSoC6/I2C_MAX.h **** /*******************************************************************************
 614:Generated_Source\PSoC6/I2C_MAX.h **** * Function Name: I2C_MAX_MasterWriteByte
 615:Generated_Source\PSoC6/I2C_MAX.h **** ****************************************************************************//**
 616:Generated_Source\PSoC6/I2C_MAX.h **** *
 617:Generated_Source\PSoC6/I2C_MAX.h **** * Invokes the Cy_SCB_I2C_MasterWriteByte() PDL driver function.
 618:Generated_Source\PSoC6/I2C_MAX.h **** *
 619:Generated_Source\PSoC6/I2C_MAX.h **** *******************************************************************************/
 620:Generated_Source\PSoC6/I2C_MAX.h **** __STATIC_INLINE cy_en_scb_i2c_status_t I2C_MAX_MasterWriteByte(uint8_t byte, uint32_t timeoutMs)
 621:Generated_Source\PSoC6/I2C_MAX.h **** {
 622:Generated_Source\PSoC6/I2C_MAX.h ****     return Cy_SCB_I2C_MasterWriteByte(I2C_MAX_HW, byte, timeoutMs, &I2C_MAX_context);
  64              		.loc 2 622 0
  65 001c 114B     		ldr	r3, .L6
  66 001e 6422     		movs	r2, #100
  67 0020 2146     		mov	r1, r4
  68 0022 1148     		ldr	r0, .L6+4
  69 0024 FFF7FEFF 		bl	Cy_SCB_I2C_MasterWriteByte
  70              	.LVL5:
ARM GAS  C:\Users\fatim\AppData\Local\Temp\cc5RasCs.s 			page 14


  71              	.L2:
  72              	.LBE35:
  73              	.LBE34:
  74              	.LBB36:
  75              	.LBB37:
 583:Generated_Source\PSoC6/I2C_MAX.h **** }
  76              		.loc 2 583 0
  77 0028 0E4B     		ldr	r3, .L6
  78 002a 0093     		str	r3, [sp]
  79 002c 6423     		movs	r3, #100
  80 002e 0122     		movs	r2, #1
  81 0030 5721     		movs	r1, #87
  82 0032 0D48     		ldr	r0, .L6+4
  83 0034 FFF7FEFF 		bl	Cy_SCB_I2C_MasterSendReStart
  84              	.LVL6:
  85              	.LBE37:
  86              	.LBE36:
  50:MAX30102.c    ****     I2C_MAX_MasterWriteByte(adresse, I2C_TIMEOUT); 
  51:MAX30102.c    ****     }
  52:MAX30102.c    ****     status = I2C_MAX_MasterSendReStart(ADRESSE_MAX,CY_SCB_I2C_READ_XFER,I2C_TIMEOUT);  
  53:MAX30102.c    ****     if(status==CY_SCB_I2C_SUCCESS){
  87              		.loc 1 53 0
  88 0038 58B9     		cbnz	r0, .L3
  89              	.L4:
  90              	.LVL7:
  91              	.LBB38:
  92              	.LBB39:
 609:Generated_Source\PSoC6/I2C_MAX.h **** }
  93              		.loc 2 609 0 discriminator 1
  94 003a 0A4B     		ldr	r3, .L6
  95 003c 0093     		str	r3, [sp]
  96 003e 6423     		movs	r3, #100
  97 0040 0DF10F02 		add	r2, sp, #15
  98              	.LVL8:
  99 0044 0021     		movs	r1, #0
 100 0046 0848     		ldr	r0, .L6+4
 101 0048 FFF7FEFF 		bl	Cy_SCB_I2C_MasterReadByte
 102              	.LVL9:
 103              	.LBE39:
 104              	.LBE38:
  54:MAX30102.c    ****         do{
  55:MAX30102.c    ****         status=I2C_MAX_MasterReadByte(CY_SCB_I2C_ACK,(uint8_t*)&regValue,I2C_TIMEOUT); //Pourquoi N
  56:MAX30102.c    ****         }
  57:MAX30102.c    ****         while(status != CY_SCB_I2C_MASTER_MANUAL_NAK);
 105              		.loc 1 57 0 discriminator 1
 106 004c 074B     		ldr	r3, .L6+8
 107 004e 9842     		cmp	r0, r3
 108 0050 F3D1     		bne	.L4
 109              	.L3:
 110              	.LVL10:
 111              	.LBB40:
 112              	.LBB41:
 596:Generated_Source\PSoC6/I2C_MAX.h **** }
 113              		.loc 2 596 0
 114 0052 044A     		ldr	r2, .L6
 115 0054 6421     		movs	r1, #100
 116 0056 0448     		ldr	r0, .L6+4
ARM GAS  C:\Users\fatim\AppData\Local\Temp\cc5RasCs.s 			page 15


 117 0058 FFF7FEFF 		bl	Cy_SCB_I2C_MasterSendStop
 118              	.LVL11:
 119              	.LBE41:
 120              	.LBE40:
  58:MAX30102.c    ****     }
  59:MAX30102.c    ****     status = I2C_MAX_MasterSendStop(I2C_TIMEOUT);
  60:MAX30102.c    ****     return regValue;
  61:MAX30102.c    **** }
 121              		.loc 1 61 0
 122 005c 9DF80F00 		ldrb	r0, [sp, #15]	@ zero_extendqisi2
 123 0060 04B0     		add	sp, sp, #16
 124              		.cfi_def_cfa_offset 8
 125              		@ sp needed
 126 0062 10BD     		pop	{r4, pc}
 127              	.L7:
 128              		.align	2
 129              	.L6:
 130 0064 00000000 		.word	I2C_MAX_context
 131 0068 00006340 		.word	1080229888
 132 006c 0520AA00 		.word	11149317
 133              		.cfi_endproc
 134              	.LFE656:
 135              		.size	readRegistre, .-readRegistre
 136              		.section	.text.writeRegistre,"ax",%progbits
 137              		.align	2
 138              		.global	writeRegistre
 139              		.thumb
 140              		.thumb_func
 141              		.type	writeRegistre, %function
 142              	writeRegistre:
 143              	.LFB657:
  62:MAX30102.c    **** 
  63:MAX30102.c    **** void writeRegistre(uint8_t adresse, uint8_t data){ 
 144              		.loc 1 63 0
 145              		.cfi_startproc
 146              		@ args = 0, pretend = 0, frame = 0
 147              		@ frame_needed = 0, uses_anonymous_args = 0
 148              	.LVL12:
 149 0000 70B5     		push	{r4, r5, r6, lr}
 150              		.cfi_def_cfa_offset 16
 151              		.cfi_offset 4, -16
 152              		.cfi_offset 5, -12
 153              		.cfi_offset 6, -8
 154              		.cfi_offset 14, -4
 155 0002 82B0     		sub	sp, sp, #8
 156              		.cfi_def_cfa_offset 24
 157 0004 0446     		mov	r4, r0
 158 0006 0E46     		mov	r6, r1
 159              	.LVL13:
 160              	.LBB42:
 161              	.LBB43:
 570:Generated_Source\PSoC6/I2C_MAX.h **** }
 162              		.loc 2 570 0
 163 0008 0E4B     		ldr	r3, .L11
 164 000a 0093     		str	r3, [sp]
 165 000c 6423     		movs	r3, #100
 166 000e 0022     		movs	r2, #0
ARM GAS  C:\Users\fatim\AppData\Local\Temp\cc5RasCs.s 			page 16


 167 0010 5721     		movs	r1, #87
 168              	.LVL14:
 169 0012 0D48     		ldr	r0, .L11+4
 170              	.LVL15:
 171 0014 FFF7FEFF 		bl	Cy_SCB_I2C_MasterSendStart
 172              	.LVL16:
 173              	.LBE43:
 174              	.LBE42:
  64:MAX30102.c    ****     
  65:MAX30102.c    ****     cy_en_scb_i2c_status_t status;
  66:MAX30102.c    ****     
  67:MAX30102.c    ****     status = I2C_MAX_MasterSendStart(ADRESSE_MAX,CY_SCB_I2C_WRITE_XFER,I2C_TIMEOUT);
  68:MAX30102.c    ****     if(status==CY_SCB_I2C_SUCCESS){
 175              		.loc 1 68 0
 176 0018 28B9     		cbnz	r0, .L9
 177              	.LVL17:
 178              	.LBB44:
 179              	.LBB45:
 180              		.loc 2 622 0
 181 001a 0A4B     		ldr	r3, .L11
 182 001c 6422     		movs	r2, #100
 183 001e 2146     		mov	r1, r4
 184 0020 0948     		ldr	r0, .L11+4
 185 0022 FFF7FEFF 		bl	Cy_SCB_I2C_MasterWriteByte
 186              	.LVL18:
 187              	.L9:
 188              	.LBE45:
 189              	.LBE44:
 190              	.LBB46:
 191              	.LBB47:
 192 0026 074D     		ldr	r5, .L11
 193 0028 074C     		ldr	r4, .L11+4
 194 002a 2B46     		mov	r3, r5
 195 002c 6422     		movs	r2, #100
 196 002e 3146     		mov	r1, r6
 197 0030 2046     		mov	r0, r4
 198 0032 FFF7FEFF 		bl	Cy_SCB_I2C_MasterWriteByte
 199              	.LVL19:
 200              	.LBE47:
 201              	.LBE46:
 202              	.LBB48:
 203              	.LBB49:
 596:Generated_Source\PSoC6/I2C_MAX.h **** }
 204              		.loc 2 596 0
 205 0036 2A46     		mov	r2, r5
 206 0038 6421     		movs	r1, #100
 207 003a 2046     		mov	r0, r4
 208 003c FFF7FEFF 		bl	Cy_SCB_I2C_MasterSendStop
 209              	.LVL20:
 210              	.LBE49:
 211              	.LBE48:
  69:MAX30102.c    ****         I2C_MAX_MasterWriteByte(adresse,I2C_TIMEOUT); 
  70:MAX30102.c    ****     }
  71:MAX30102.c    ****     
  72:MAX30102.c    ****     I2C_MAX_MasterWriteByte(data,I2C_TIMEOUT);
  73:MAX30102.c    ****     I2C_MAX_MasterSendStop(I2C_TIMEOUT);
  74:MAX30102.c    ****     
ARM GAS  C:\Users\fatim\AppData\Local\Temp\cc5RasCs.s 			page 17


  75:MAX30102.c    **** } 
 212              		.loc 1 75 0
 213 0040 02B0     		add	sp, sp, #8
 214              		.cfi_def_cfa_offset 16
 215              		@ sp needed
 216 0042 70BD     		pop	{r4, r5, r6, pc}
 217              	.L12:
 218              		.align	2
 219              	.L11:
 220 0044 00000000 		.word	I2C_MAX_context
 221 0048 00006340 		.word	1080229888
 222              		.cfi_endproc
 223              	.LFE657:
 224              		.size	writeRegistre, .-writeRegistre
 225              		.section	.text.MAX30102_config,"ax",%progbits
 226              		.align	2
 227              		.global	MAX30102_config
 228              		.thumb
 229              		.thumb_func
 230              		.type	MAX30102_config, %function
 231              	MAX30102_config:
 232              	.LFB655:
  18:MAX30102.c    **** CyDelay(100);    
 233              		.loc 1 18 0
 234              		.cfi_startproc
 235              		@ args = 0, pretend = 0, frame = 0
 236              		@ frame_needed = 0, uses_anonymous_args = 0
 237 0000 08B5     		push	{r3, lr}
 238              		.cfi_def_cfa_offset 8
 239              		.cfi_offset 3, -8
 240              		.cfi_offset 14, -4
  19:MAX30102.c    ****     
 241              		.loc 1 19 0
 242 0002 6420     		movs	r0, #100
 243 0004 FFF7FEFF 		bl	Cy_SysLib_Delay
 244              	.LVL21:
  21:MAX30102.c    ****         
 245              		.loc 1 21 0
 246 0008 D021     		movs	r1, #208
 247 000a 0220     		movs	r0, #2
 248 000c FFF7FEFF 		bl	writeRegistre
 249              	.LVL22:
  23:MAX30102.c    **** 
 250              		.loc 1 23 0
 251 0010 0021     		movs	r1, #0
 252 0012 0320     		movs	r0, #3
 253 0014 FFF7FEFF 		bl	writeRegistre
 254              	.LVL23:
  25:MAX30102.c    **** 
 255              		.loc 1 25 0
 256 0018 0021     		movs	r1, #0
 257 001a 0420     		movs	r0, #4
 258 001c FFF7FEFF 		bl	writeRegistre
 259              	.LVL24:
  27:MAX30102.c    **** 
 260              		.loc 1 27 0
 261 0020 0021     		movs	r1, #0
ARM GAS  C:\Users\fatim\AppData\Local\Temp\cc5RasCs.s 			page 18


 262 0022 0520     		movs	r0, #5
 263 0024 FFF7FEFF 		bl	writeRegistre
 264              	.LVL25:
  29:MAX30102.c    ****         
 265              		.loc 1 29 0
 266 0028 0021     		movs	r1, #0
 267 002a 0620     		movs	r0, #6
 268 002c FFF7FEFF 		bl	writeRegistre
 269              	.LVL26:
  31:MAX30102.c    ****         
 270              		.loc 1 31 0
 271 0030 1F21     		movs	r1, #31
 272 0032 0820     		movs	r0, #8
 273 0034 FFF7FEFF 		bl	writeRegistre
 274              	.LVL27:
  33:MAX30102.c    ****        
 275              		.loc 1 33 0
 276 0038 0321     		movs	r1, #3
 277 003a 0920     		movs	r0, #9
 278 003c FFF7FEFF 		bl	writeRegistre
 279              	.LVL28:
  35:MAX30102.c    **** 
 280              		.loc 1 35 0
 281 0040 2921     		movs	r1, #41
 282 0042 0A20     		movs	r0, #10
 283 0044 FFF7FEFF 		bl	writeRegistre
 284              	.LVL29:
  37:MAX30102.c    **** 
 285              		.loc 1 37 0
 286 0048 1F21     		movs	r1, #31
 287 004a 0C20     		movs	r0, #12
 288 004c FFF7FEFF 		bl	writeRegistre
 289              	.LVL30:
  39:MAX30102.c    **** 
 290              		.loc 1 39 0
 291 0050 1F21     		movs	r1, #31
 292 0052 0D20     		movs	r0, #13
 293 0054 FFF7FEFF 		bl	writeRegistre
 294              	.LVL31:
 295 0058 08BD     		pop	{r3, pc}
 296              		.cfi_endproc
 297              	.LFE655:
 298              		.size	MAX30102_config, .-MAX30102_config
 299 005a 00BF     		.section	.text.readMultipleBytes,"ax",%progbits
 300              		.align	2
 301              		.global	readMultipleBytes
 302              		.thumb
 303              		.thumb_func
 304              		.type	readMultipleBytes, %function
 305              	readMultipleBytes:
 306              	.LFB658:
  76:MAX30102.c    **** 
  77:MAX30102.c    **** void readMultipleBytes(uint8_t baseAddress, uint8_t *buffer, uint8_t length)
  78:MAX30102.c    **** {
 307              		.loc 1 78 0
 308              		.cfi_startproc
 309              		@ args = 0, pretend = 0, frame = 0
ARM GAS  C:\Users\fatim\AppData\Local\Temp\cc5RasCs.s 			page 19


 310              		@ frame_needed = 0, uses_anonymous_args = 0
 311              	.LVL32:
 312 0000 2DE9F041 		push	{r4, r5, r6, r7, r8, lr}
 313              		.cfi_def_cfa_offset 24
 314              		.cfi_offset 4, -24
 315              		.cfi_offset 5, -20
 316              		.cfi_offset 6, -16
 317              		.cfi_offset 7, -12
 318              		.cfi_offset 8, -8
 319              		.cfi_offset 14, -4
 320 0004 82B0     		sub	sp, sp, #8
 321              		.cfi_def_cfa_offset 32
 322 0006 8046     		mov	r8, r0
 323 0008 0D46     		mov	r5, r1
 324 000a 1646     		mov	r6, r2
 325              	.LVL33:
 326              	.LBB50:
 327              	.LBB51:
 570:Generated_Source\PSoC6/I2C_MAX.h **** }
 328              		.loc 2 570 0
 329 000c 1A4C     		ldr	r4, .L19
 330 000e 1B4F     		ldr	r7, .L19+4
 331 0010 0097     		str	r7, [sp]
 332 0012 6423     		movs	r3, #100
 333 0014 0022     		movs	r2, #0
 334              	.LVL34:
 335 0016 5721     		movs	r1, #87
 336              	.LVL35:
 337 0018 2046     		mov	r0, r4
 338              	.LVL36:
 339 001a FFF7FEFF 		bl	Cy_SCB_I2C_MasterSendStart
 340              	.LVL37:
 341              	.LBE51:
 342              	.LBE50:
 343              	.LBB52:
 344              	.LBB53:
 345              		.loc 2 622 0
 346 001e 3B46     		mov	r3, r7
 347 0020 6422     		movs	r2, #100
 348 0022 4146     		mov	r1, r8
 349 0024 2046     		mov	r0, r4
 350 0026 FFF7FEFF 		bl	Cy_SCB_I2C_MasterWriteByte
 351              	.LVL38:
 352              	.LBE53:
 353              	.LBE52:
 354              	.LBB54:
 355              	.LBB55:
 583:Generated_Source\PSoC6/I2C_MAX.h **** }
 356              		.loc 2 583 0
 357 002a 0097     		str	r7, [sp]
 358 002c 6423     		movs	r3, #100
 359 002e 0122     		movs	r2, #1
 360 0030 5721     		movs	r1, #87
 361 0032 2046     		mov	r0, r4
 362 0034 FFF7FEFF 		bl	Cy_SCB_I2C_MasterSendReStart
 363              	.LVL39:
 364              	.LBE55:
ARM GAS  C:\Users\fatim\AppData\Local\Temp\cc5RasCs.s 			page 20


 365              	.LBE54:
  79:MAX30102.c    ****         I2C_MAX_MasterSendStart(ADRESSE_MAX,CY_SCB_I2C_WRITE_XFER,I2C_TIMEOUT); 
  80:MAX30102.c    ****         I2C_MAX_MasterWriteByte(baseAddress,I2C_TIMEOUT);       
  81:MAX30102.c    ****         I2C_MAX_MasterSendReStart(ADRESSE_MAX,CY_SCB_I2C_READ_XFER,I2C_TIMEOUT);
  82:MAX30102.c    ****         uint8_t idx = 0;
  83:MAX30102.c    ****         for(idx=0 ; idx < length-1 ; idx++){ 
 366              		.loc 1 83 0
 367 0038 0024     		movs	r4, #0
 368 003a 09E0     		b	.L16
 369              	.LVL40:
 370              	.L17:
 371              	.LBB56:
 372              	.LBB57:
 609:Generated_Source\PSoC6/I2C_MAX.h **** }
 373              		.loc 2 609 0 discriminator 3
 374 003c 0F4B     		ldr	r3, .L19+4
 375 003e 0093     		str	r3, [sp]
 376 0040 6423     		movs	r3, #100
 377 0042 2A19     		adds	r2, r5, r4
 378              	.LVL41:
 379 0044 0021     		movs	r1, #0
 380 0046 0C48     		ldr	r0, .L19
 381 0048 FFF7FEFF 		bl	Cy_SCB_I2C_MasterReadByte
 382              	.LVL42:
 383              	.LBE57:
 384              	.LBE56:
 385              		.loc 1 83 0 discriminator 3
 386 004c 0134     		adds	r4, r4, #1
 387              	.LVL43:
 388 004e E4B2     		uxtb	r4, r4
 389              	.LVL44:
 390              	.L16:
 391              		.loc 1 83 0 is_stmt 0 discriminator 1
 392 0050 731E     		subs	r3, r6, #1
 393 0052 9C42     		cmp	r4, r3
 394 0054 F2DB     		blt	.L17
 395              	.LVL45:
 396              	.LBB58:
 397              	.LBB59:
 609:Generated_Source\PSoC6/I2C_MAX.h **** }
 398              		.loc 2 609 0 is_stmt 1
 399 0056 084E     		ldr	r6, .L19
 400 0058 084F     		ldr	r7, .L19+4
 401 005a 0097     		str	r7, [sp]
 402 005c 6423     		movs	r3, #100
 403 005e 2A19     		adds	r2, r5, r4
 404              	.LVL46:
 405 0060 0121     		movs	r1, #1
 406 0062 3046     		mov	r0, r6
 407 0064 FFF7FEFF 		bl	Cy_SCB_I2C_MasterReadByte
 408              	.LVL47:
 409              	.LBE59:
 410              	.LBE58:
 411              	.LBB60:
 412              	.LBB61:
 596:Generated_Source\PSoC6/I2C_MAX.h **** }
 413              		.loc 2 596 0
ARM GAS  C:\Users\fatim\AppData\Local\Temp\cc5RasCs.s 			page 21


 414 0068 3A46     		mov	r2, r7
 415 006a 6421     		movs	r1, #100
 416 006c 3046     		mov	r0, r6
 417 006e FFF7FEFF 		bl	Cy_SCB_I2C_MasterSendStop
 418              	.LVL48:
 419              	.LBE61:
 420              	.LBE60:
  84:MAX30102.c    ****             I2C_MAX_MasterReadByte(CY_SCB_I2C_ACK,(uint8_t*)&buffer[idx],I2C_TIMEOUT);  
  85:MAX30102.c    ****         }
  86:MAX30102.c    ****         I2C_MAX_MasterReadByte(CY_SCB_I2C_NAK,(uint8_t*)&buffer[idx],I2C_TIMEOUT);
  87:MAX30102.c    ****         I2C_MAX_MasterSendStop(I2C_TIMEOUT); 
  88:MAX30102.c    **** }
 421              		.loc 1 88 0
 422 0072 02B0     		add	sp, sp, #8
 423              		.cfi_def_cfa_offset 24
 424              		@ sp needed
 425 0074 BDE8F081 		pop	{r4, r5, r6, r7, r8, pc}
 426              	.LVL49:
 427              	.L20:
 428              		.align	2
 429              	.L19:
 430 0078 00006340 		.word	1080229888
 431 007c 00000000 		.word	I2C_MAX_context
 432              		.cfi_endproc
 433              	.LFE658:
 434              		.size	readMultipleBytes, .-readMultipleBytes
 435              		.section	.text.readFIFO,"ax",%progbits
 436              		.align	2
 437              		.global	readFIFO
 438              		.thumb
 439              		.thumb_func
 440              		.type	readFIFO, %function
 441              	readFIFO:
 442              	.LFB659:
  89:MAX30102.c    **** 
  90:MAX30102.c    **** void readFIFO(float32_t *red_LED, float32_t *ir_LED, uint16_t compteur){
 443              		.loc 1 90 0
 444              		.cfi_startproc
 445              		@ args = 0, pretend = 0, frame = 8
 446              		@ frame_needed = 0, uses_anonymous_args = 0
 447              	.LVL50:
 448 0000 70B5     		push	{r4, r5, r6, lr}
 449              		.cfi_def_cfa_offset 16
 450              		.cfi_offset 4, -16
 451              		.cfi_offset 5, -12
 452              		.cfi_offset 6, -8
 453              		.cfi_offset 14, -4
 454 0002 82B0     		sub	sp, sp, #8
 455              		.cfi_def_cfa_offset 24
 456 0004 0646     		mov	r6, r0
 457 0006 0D46     		mov	r5, r1
 458 0008 1446     		mov	r4, r2
  91:MAX30102.c    ****     //ou remplacer par tableau
  92:MAX30102.c    ****     uint8_t i2c_data [6];
  93:MAX30102.c    ****         
  94:MAX30102.c    ****         readMultipleBytes(REG_FIFO_DATA,i2c_data,6);
 459              		.loc 1 94 0
ARM GAS  C:\Users\fatim\AppData\Local\Temp\cc5RasCs.s 			page 22


 460 000a 0622     		movs	r2, #6
 461              	.LVL51:
 462 000c 6946     		mov	r1, sp
 463              	.LVL52:
 464 000e 0720     		movs	r0, #7
 465              	.LVL53:
 466 0010 FFF7FEFF 		bl	readMultipleBytes
 467              	.LVL54:
  95:MAX30102.c    ****         red_LED[compteur]=(float32_t)((0b00000011&i2c_data[0])<<16)+(i2c_data[1]<<8)+(i2c_data[2]);
 468              		.loc 1 95 0
 469 0014 A200     		lsls	r2, r4, #2
 470 0016 1644     		add	r6, r6, r2
 471              	.LVL55:
 472 0018 9DF80030 		ldrb	r3, [sp]	@ zero_extendqisi2
 473 001c 1B04     		lsls	r3, r3, #16
 474 001e 03F44033 		and	r3, r3, #196608
 475 0022 07EE903A 		vmov	s15, r3	@ int
 476 0026 B8EEE77A 		vcvt.f32.s32	s14, s15
 477 002a 9DF80130 		ldrb	r3, [sp, #1]	@ zero_extendqisi2
 478 002e 1B02     		lsls	r3, r3, #8
 479 0030 07EE903A 		vmov	s15, r3	@ int
 480 0034 F8EEE77A 		vcvt.f32.s32	s15, s15
 481 0038 77EE877A 		vadd.f32	s15, s15, s14
 482 003c 9DF80230 		ldrb	r3, [sp, #2]	@ zero_extendqisi2
 483 0040 07EE103A 		vmov	s14, r3	@ int
 484 0044 B8EEC77A 		vcvt.f32.s32	s14, s14
 485 0048 77EE277A 		vadd.f32	s15, s14, s15
 486 004c C6ED007A 		vstr.32	s15, [r6]
  96:MAX30102.c    ****         ir_LED[compteur]=(float32_t) ((i2c_data[3]<<16)+(i2c_data[4]<<8)+(i2c_data[5]));
 487              		.loc 1 96 0
 488 0050 2A44     		add	r2, r2, r5
 489 0052 9DF80310 		ldrb	r1, [sp, #3]	@ zero_extendqisi2
 490 0056 9DF80430 		ldrb	r3, [sp, #4]	@ zero_extendqisi2
 491 005a 1B02     		lsls	r3, r3, #8
 492 005c 03EB0143 		add	r3, r3, r1, lsl #16
 493 0060 9DF80510 		ldrb	r1, [sp, #5]	@ zero_extendqisi2
 494 0064 0B44     		add	r3, r3, r1
 495 0066 07EE903A 		vmov	s15, r3	@ int
 496 006a F8EEE77A 		vcvt.f32.s32	s15, s15
 497 006e C2ED007A 		vstr.32	s15, [r2]
  97:MAX30102.c    ****         
  98:MAX30102.c    ****     
  99:MAX30102.c    ****     
 100:MAX30102.c    **** }
 498              		.loc 1 100 0
 499 0072 02B0     		add	sp, sp, #8
 500              		.cfi_def_cfa_offset 16
 501              		@ sp needed
 502 0074 70BD     		pop	{r4, r5, r6, pc}
 503              		.cfi_endproc
 504              	.LFE659:
 505              		.size	readFIFO, .-readFIFO
 506 0076 00BF     		.section	.text.changeLED_red,"ax",%progbits
 507              		.align	2
 508              		.global	changeLED_red
 509              		.thumb
 510              		.thumb_func
ARM GAS  C:\Users\fatim\AppData\Local\Temp\cc5RasCs.s 			page 23


 511              		.type	changeLED_red, %function
 512              	changeLED_red:
 513              	.LFB660:
 101:MAX30102.c    **** 
 102:MAX30102.c    **** void changeLED_red (short int ledAmp_red)
 103:MAX30102.c    **** {
 514              		.loc 1 103 0
 515              		.cfi_startproc
 516              		@ args = 0, pretend = 0, frame = 0
 517              		@ frame_needed = 0, uses_anonymous_args = 0
 518              	.LVL56:
 519 0000 08B5     		push	{r3, lr}
 520              		.cfi_def_cfa_offset 8
 521              		.cfi_offset 3, -8
 522              		.cfi_offset 14, -4
 104:MAX30102.c    ****     
 105:MAX30102.c    ****     writeRegistre(REG_LED_AMP_1, ledAmp_red); 
 523              		.loc 1 105 0
 524 0002 C1B2     		uxtb	r1, r0
 525 0004 0C20     		movs	r0, #12
 526              	.LVL57:
 527 0006 FFF7FEFF 		bl	writeRegistre
 528              	.LVL58:
 529 000a 08BD     		pop	{r3, pc}
 530              		.cfi_endproc
 531              	.LFE660:
 532              		.size	changeLED_red, .-changeLED_red
 533              		.section	.text.changeLED_IR,"ax",%progbits
 534              		.align	2
 535              		.global	changeLED_IR
 536              		.thumb
 537              		.thumb_func
 538              		.type	changeLED_IR, %function
 539              	changeLED_IR:
 540              	.LFB661:
 106:MAX30102.c    ****   
 107:MAX30102.c    ****     
 108:MAX30102.c    **** }
 109:MAX30102.c    ****     
 110:MAX30102.c    **** 
 111:MAX30102.c    **** void changeLED_IR (short int ledAmp_IR)
 112:MAX30102.c    **** {
 541              		.loc 1 112 0
 542              		.cfi_startproc
 543              		@ args = 0, pretend = 0, frame = 0
 544              		@ frame_needed = 0, uses_anonymous_args = 0
 545              	.LVL59:
 546 0000 08B5     		push	{r3, lr}
 547              		.cfi_def_cfa_offset 8
 548              		.cfi_offset 3, -8
 549              		.cfi_offset 14, -4
 113:MAX30102.c    ****     
 114:MAX30102.c    ****     
 115:MAX30102.c    ****     writeRegistre(REG_LED_AMP_2, ledAmp_IR); 
 550              		.loc 1 115 0
 551 0002 C1B2     		uxtb	r1, r0
 552 0004 0D20     		movs	r0, #13
ARM GAS  C:\Users\fatim\AppData\Local\Temp\cc5RasCs.s 			page 24


 553              	.LVL60:
 554 0006 FFF7FEFF 		bl	writeRegistre
 555              	.LVL61:
 556 000a 08BD     		pop	{r3, pc}
 557              		.cfi_endproc
 558              	.LFE661:
 559              		.size	changeLED_IR, .-changeLED_IR
 560              		.text
 561              	.Letext0:
 562              		.file 3 "c:\\program files (x86)\\cypress\\psoc creator\\4.4\\psoc creator\\import\\gnu\\arm\\5.4.
 563              		.file 4 "c:\\program files (x86)\\cypress\\psoc creator\\4.4\\psoc creator\\import\\gnu\\arm\\5.4.
 564              		.file 5 "Generated_Source\\PSoC6\\pdl\\devices/psoc6/include/ip/cyip_scb.h"
 565              		.file 6 "Generated_Source\\PSoC6\\pdl\\devices/psoc6/include/psoc6_01_config.h"
 566              		.file 7 "Generated_Source\\PSoC6\\pdl\\drivers/peripheral/device/cy_device.h"
 567              		.file 8 "Generated_Source\\PSoC6\\pdl\\drivers/peripheral/syslib/cy_syslib.h"
 568              		.file 9 "Generated_Source\\PSoC6\\pdl\\drivers/peripheral/scb/cy_scb_i2c.h"
 569              		.file 10 "Generated_Source\\PSoC6\\pdl\\drivers/peripheral/scb/cy_scb_spi.h"
 570              		.file 11 "Generated_Source\\PSoC6\\pdl\\drivers/peripheral/scb/cy_scb_uart.h"
 571              		.file 12 "Generated_Source\\PSoC6\\pdl\\drivers/peripheral/tcpwm/cy_tcpwm_counter.h"
 572              		.file 13 ".\\CMSIS\\Core\\Include/core_cm4.h"
 573              		.file 14 "Generated_Source\\PSoC6/CY_EINK_SPIM.h"
 574              		.file 15 "Generated_Source\\PSoC6/CY_EINK_Timer.h"
 575              		.file 16 "Generated_Source\\PSoC6/I2C_BMI.h"
 576              		.file 17 "Generated_Source\\PSoC6/UART_1.h"